(lp1
(lp2
(S'icing'
p3
F1
tp4
a(S'backstory'
p5
F1
tp6
a(S'chany'
p7
F1
tp8
a(S'donnelly'
p9
F1
tp10
a(S'gaming'
p11
F1
tp12
a(S'horny'
p13
F1
tp14
a(S'crabby'
p15
F1
tp16
a(S'wally'
p17
F1
tp18
a(S'hongry'
p19
F1
tp20
a(S'cary'
p21
F1
tp22
a(S'rly'
p23
F1
tp24
a(S'fuckery'
p25
F1
tp26
a(S'ibilities'
p27
F1
tp28
a(S'lily'
p29
F1
tp30
a(S'scooby'
p31
F1
tp32
a(S'tracy'
p33
F1
tp34
a(S'gaby'
p35
F1
tp36
a(S'rugby'
p37
F1
tp38
a(S'imy'
p39
F1
tp40
a(S'alities'
p41
F1
tp42
a(S'fatty'
p43
F1
tp44
a(S'grading'
p45
F1
tp46
a(S'industry'
p47
F1
tp48
a(S'gallery'
p49
F1
tp50
a(S'etsy'
p51
F1
tp52
a(S'tammy'
p53
F0.9885057471264368
tp54
a(S'ily'
p55
F0.94117647058823528
tp56
a(S'bby'
p57
F0.9375
tp58
a(S'misery'
p59
F0.92307692307692313
tp60
a(S'gravity'
p61
F0.92307692307692313
tp62
a(S'grammys'
p63
F0.91666666666666663
tp64
a(S'happppy'
p65
F0.91666666666666663
tp66
a(S'hunny'
p67
F0.90909090909090906
tp68
a(S'shining'
p69
F0.90000000000000002
tp70
a(S'contrary'
p71
F0.90000000000000002
tp72
a(S'codys'
p73
F0.90000000000000002
tp74
a(S'lucy'
p75
F0.90000000000000002
tp76
a(S'nesses'
p77
F0.88888888888888884
tp78
a(S'sry'
p79
F0.88888888888888884
tp80
a(S'commentary'
p81
F0.875
tp82
a(S'barry'
p83
F0.875
tp84
a(S'nighty'
p85
F0.875
tp86
a(S'izations'
p87
F0.875
tp88
a(S'community'
p89
F0.86842105263157898
tp90
a(S'daily'
p91
F0.86486486486486491
tp92
a(S'tragedy'
p93
F0.86206896551724133
tp94
a(S'comedy'
p95
F0.8571428571428571
tp96
a(S'economy'
p97
F0.8571428571428571
tp98
a(S'purify'
p99
F0.8571428571428571
tp100
a(S'cosby'
p101
F0.8571428571428571
tp102
a(S'jeopardy'
p103
F0.8571428571428571
tp104
a(S'panty'
p105
F0.8571428571428571
tp106
a(S'pinky'
p107
F0.8571428571428571
tp108
a(S'dizzy'
p109
F0.8571428571428571
tp110
a(S'dennys'
p111
F0.8571428571428571
tp112
a(S'dreamy'
p113
F0.8571428571428571
tp114
a(S'taffy'
p115
F0.8571428571428571
tp116
a(S'jazzy'
p117
F0.8571428571428571
tp118
a(S'mercury'
p119
F0.84615384615384615
tp120
a(S'ousness'
p121
F0.84615384615384615
tp122
a(S'bloody'
p123
F0.83333333333333337
tp124
a(S'kinky'
p125
F0.83333333333333337
tp126
a(S'sleepy'
p127
F0.83018867924528306
tp128
a(S'terrifying'
p129
F0.82608695652173914
tp130
a(S'joking'
p131
F0.82608695652173914
tp132
a(S'enemy'
p133
F0.8214285714285714
tp134
a(S'petty'
p135
F0.82051282051282048
tp136
a(S'temporarily'
p137
F0.81818181818181823
tp138
a(S'betty'
p139
F0.81818181818181823
tp140
a(S'cranberry'
p141
F0.81818181818181823
tp142
a(S'destinys'
p143
F0.80952380952380953
tp144
a(S'or'
p145
F0.80952380952380953
tp146
a(S'ables'
p147
F0.80645161290322576
tp148
a(S'trashy'
p149
F0.80000000000000004
tp150
a(S'pony'
p151
F0.80000000000000004
tp152
a(S'heyyyy'
p153
F0.80000000000000004
tp154
a(S'conspiracy'
p155
F0.80000000000000004
tp156
a(S'fluffy'
p157
F0.80000000000000004
tp158
a(S'terry'
p159
F0.80000000000000004
tp160
a(S'category'
p161
F0.80000000000000004
tp162
a(S'closing'
p163
F0.78260869565217395
tp164
a(S'somebody'
p165
F0.78205128205128205
tp166
a(S'goofy'
p167
F0.78125
tp168
a(S'shitty'
p169
F0.78030303030303028
tp170
a(S'doggy'
p171
F0.77777777777777779
tp172
a(S'perry'
p173
F0.77777777777777779
tp174
a(S'primary'
p175
F0.77777777777777779
tp176
a(S'horrifying'
p177
F0.77777777777777779
tp178
a(S'ivity'
p179
F0.77777777777777779
tp180
a(S'babyyy'
p181
F0.77777777777777779
tp182
a(S'nasty'
p183
F0.77358490566037741
tp184
a(S'steady'
p185
F0.77272727272727271
tp186
a(S'eful'
p187
F0.76923076923076927
tp188
a(S'billy'
p189
F0.76470588235294112
tp190
a(S'teddy'
p191
F0.76470588235294112
tp192
a(S'bobby'
p193
F0.76470588235294112
tp194
a(S'laffy'
p195
F0.76470588235294112
tp196
a(S'reply'
p197
F0.76271186440677963
tp198
a(S'skinny'
p199
F0.76190476190476186
tp200
a(S'mommy'
p201
F0.76190476190476186
tp202
a(S'silly'
p203
F0.7567567567567568
tp204
a(S'sassy'
p205
F0.75
tp206
a(S'avery'
p207
F0.75
tp208
a(S'diary'
p209
F0.75
tp210
a(S'naughty'
p211
F0.75
tp212
a(S'mystery'
p213
F0.75
tp214
a(S'giddy'
p215
F0.75
tp216
a(S'penalty'
p217
F0.75
tp218
a(S'whyyy'
p219
F0.75
tp220
a(S'gabby'
p221
F0.75
tp222
a(S'battery'
p223
F0.75
tp224
a(S'ants'
p225
F0.75
tp226
a(S'stating'
p227
F0.75
tp228
a(S'firing'
p229
F0.75
tp230
a(S'chivalry'
p231
F0.75
tp232
a(S'everybody'
p233
F0.7436823104693141
tp234
a(S'apply'
p235
F0.7407407407407407
tp236
a(S'granny'
p237
F0.73529411764705888
tp238
a(S'reality'
p239
F0.73493975903614461
tp240
a(S'savings'
p241
F0.73333333333333328
tp242
a(S'daddy'
p243
F0.72891566265060237
tp244
a(S'dictionary'
p245
F0.72727272727272729
tp246
a(S'ements'
p247
F0.72727272727272729
tp248
a(S'blueberry'
p249
F0.72727272727272729
tp250
a(S'judy'
p251
F0.72727272727272729
tp252
a(S'hairy'
p253
F0.72727272727272729
tp254
a(S'icate'
p255
F0.72727272727272729
tp256
a(S'army'
p257
F0.72413793103448276
tp258
a(S'theory'
p259
F0.72413793103448276
tp260
a(S'scaring'
p261
F0.72222222222222221
tp262
a(S'lies'
p263
F0.72222222222222221
tp264
a(S'crappy'
p265
F0.72222222222222221
tp266
a(S'lying'
p267
F0.72164948453608246
tp268
a(S'flying'
p269
F0.71794871794871795
tp270
a(S'plenty'
p271
F0.71739130434782605
tp272
a(S'nobody'
p273
F0.71698113207547165
tp274
a(S'ugly'
p275
F0.71495327102803741
tp276
a(S'unhealthy'
p277
F0.7142857142857143
tp278
a(S'maury'
p279
F0.7142857142857143
tp280
a(S'century'
p281
F0.7142857142857143
tp282
a(S'smelly'
p283
F0.7142857142857143
tp284
a(S'healthy'
p285
F0.71232876712328763
tp286
a(S'sexy'
p287
F0.70760233918128657
tp288
a(S'shaving'
p289
F0.70588235294117652
tp290
a(S'daddys'
p291
F0.70588235294117652
tp292
a(S'safety'
p293
F0.70588235294117652
tp294
a(S'nanny'
p295
F0.70588235294117652
tp296
a(S'ned'
p297
F0.70454545454545459
tp298
a(S'slowly'
p299
F0.70422535211267601
tp300
a(S'shaking'
p301
F0.70370370370370372
tp302
a(S'heavy'
p303
F0.703125
tp304
a(S'newly'
p305
F0.69999999999999996
tp306
a(S'sally'
p307
F0.69999999999999996
tp308
a(S'geography'
p309
F0.69999999999999996
tp310
a(S'ability'
p311
F0.69999999999999996
tp312
a(S'satisfying'
p313
F0.69999999999999996
tp314
a(S'izes'
p315
F0.69999999999999996
tp316
a(S'supply'
p317
F0.69999999999999996
tp318
a(S'royalty'
p319
F0.69999999999999996
tp320
a(S'variety'
p321
F0.69999999999999996
tp322
a(S'ality'
p323
F0.69841269841269837
tp324
a(S'writing'
p325
F0.69718309859154926
tp326
a(S'comfy'
p327
F0.69696969696969702
tp328
a(S'larry'
p329
F0.69696969696969702
tp330
a(S'company'
p331
F0.69354838709677424
tp332
a(S'military'
p333
F0.69230769230769229
tp334
a(S'dings'
p335
F0.69230769230769229
tp336
a(S'clarity'
p337
F0.69230769230769229
tp338
a(S'alrighty'
p339
F0.69230769230769229
tp340
a(S'psy'
p341
F0.69230769230769229
tp342
a(S'dignity'
p343
F0.69230769230769229
tp344
a(S'blaming'
p345
F0.69230769230769229
tp346
a(S'kitty'
p347
F0.69090909090909092
tp348
a(S'grocery'
p349
F0.69047619047619047
tp350
a(S'copy'
p351
F0.68888888888888888
tp352
a(S'catchy'
p353
F0.6875
tp354
a(S'brody'
p355
F0.6875
tp356
a(S'snoring'
p357
F0.6875
tp358
a(S'eing'
p359
F0.6875
tp360
a(S'raging'
p361
F0.6875
tp362
a(S'guilty'
p363
F0.68571428571428572
tp364
a(S'empty'
p365
F0.68493150684931503
tp366
a(S'harry'
p367
F0.68461538461538463
tp368
a(S'spy'
p369
F0.68421052631578949
tp370
a(S'ioning'
p371
F0.68421052631578949
tp372
a(S'smoking'
p373
F0.68181818181818177
tp374
a(S'shawty'
p375
F0.68181818181818177
tp376
a(S'brady'
p377
F0.68000000000000005
tp378
a(S'grammy'
p379
F0.68000000000000005
tp380
a(S'dry'
p381
F0.67796610169491522
tp382
a(S'ged'
p383
F0.67708333333333337
tp384
a(S'necessary'
p385
F0.67441860465116277
tp386
a(S'ator'
p387
F0.67441860465116277
tp388
a(S'lazy'
p389
F0.67164179104477617
tp390
a(S'story'
p391
F0.67018469656992086
tp392
a(S'ering'
p393
F0.66917293233082709
tp394
a(S'eds'
p395
F0.66666666666666663
tp396
a(S'windy'
p397
F0.66666666666666663
tp398
a(S'eness'
p399
F0.66666666666666663
tp400
a(S'february'
p401
F0.66666666666666663
tp402
aa(lp403
(S'fratty'
p404
F1
tp405
a(S'poopy'
p406
F0.90000000000000002
tp407
a(S'okayy'
p408
F0.88888888888888884
tp409
a(S'grizzly'
p410
F0.875
tp411
a(S'weezy'
p412
F0.8571428571428571
tp413
a(S'injury'
p414
F0.8571428571428571
tp415
a(S'eal'
p416
F0.8571428571428571
tp417
a(S'remy'
p418
F0.84745762711864403
tp419
a(S'cozy'
p420
F0.84615384615384615
tp421
a(S'kony'
p422
F0.80000000000000004
tp423
a(S'krispy'
p424
F0.80000000000000004
tp425
a(S'eated'
p426
F0.80000000000000004
tp427
a(S'diving'
p428
F0.76923076923076927
tp429
a(S'missy'
p430
F0.76923076923076927
tp431
a(S'thy'
p432
F0.76000000000000001
tp433
a(S'rocky'
p434
F0.75609756097560976
tp435
a(S'filthy'
p436
F0.75
tp437
a(S'dining'
p438
F0.75
tp439
a(S'jordy'
p440
F0.72093023255813948
tp441
a(S'ivy'
p442
F0.7142857142857143
tp443
a(S'nings'
p444
F0.68421052631578949
tp445
a(S'kenny'
p446
F0.6785714285714286
tp447
a(S'county'
p448
F0.67500000000000004
tp449
a(S'vikings'
p450
F0.66666666666666663
tp451
a(S'shelby'
p452
F0.66666666666666663
tp453
a(S'loling'
p454
F0.65000000000000002
tp455
a(S'dairy'
p456
F0.6470588235294118
tp457
a(S'cody'
p458
F0.64563106796116509
tp459
a(S'jeremy'
p460
F0.6428571428571429
tp461
a(S'ler'
p462
F0.64000000000000001
tp463
a(S'scoring'
p464
F0.64000000000000001
tp465
a(S'sissy'
p466
F0.64000000000000001
tp467
a(S'crosby'
p468
F0.63636363636363635
tp469
a(S'rivalry'
p470
F0.63636363636363635
tp471
a(S'bury'
p472
F0.63636363636363635
tp473
a(S'recovery'
p474
F0.625
tp475
a(S'gary'
p476
F0.625
tp477
a(S'kentucky'
p478
F0.62195121951219512
tp479
a(S'wayyyy'
p480
F0.61538461538461542
tp481
a(S'macys'
p482
F0.61111111111111116
tp483
a(S'sowwy'
p484
F0.61111111111111116
tp485
a(S'izzy'
p486
F0.59999999999999998
tp487
a(S'henry'
p488
F0.59999999999999998
tp489
a(S'proving'
p490
F0.59999999999999998
tp491
a(S'witty'
p492
F0.59999999999999998
tp493
a(S'biting'
p494
F0.58823529411764708
tp495
a(S'fifty'
p496
F0.58823529411764708
tp497
a(S'sloppy'
p498
F0.58333333333333337
tp499
a(S'familys'
p500
F0.58333333333333337
tp501
a(S'pity'
p502
F0.58333333333333337
tp503
a(S'li'
p504
F0.58333333333333337
tp505
a(S'envy'
p506
F0.57894736842105265
tp507
a(S'toby'
p508
F0.57894736842105265
tp509
a(S'legendary'
p510
F0.5714285714285714
tp511
a(S'antly'
p512
F0.5714285714285714
tp513
a(S'replying'
p514
F0.5714285714285714
tp515
a(S'fing'
p516
F0.56756756756756754
tp517
a(S'strawberry'
p518
F0.56521739130434778
tp519
a(S'bunny'
p520
F0.56000000000000005
tp521
a(S'rainy'
p522
F0.56000000000000005
tp523
a(S'anniversary'
p524
F0.55555555555555558
tp525
a(S'racing'
p526
F0.55555555555555558
tp527
a(S'quality'
p528
F0.55555555555555558
tp529
a(S'buddy'
p530
F0.55371900826446285
tp531
a(S'cocky'
p532
F0.55000000000000004
tp533
a(S'l'
F0.54878678368611256
tp534
a(S'lottery'
p535
F0.54545454545454541
tp536
a(S'fairy'
p537
F0.54545454545454541
tp538
a(S'randy'
p539
F0.54545454545454541
tp540
a(S'snowy'
p541
F0.54545454545454541
tp542
a(S'med'
p543
F0.54385964912280704
tp544
a(S'ency'
p545
F0.54385964912280704
tp546
a(S'victory'
p547
F0.54285714285714282
tp548
a(S'nessed'
p549
F0.54054054054054057
tp550
a(S'icated'
p551
F0.53846153846153844
tp552
a(S'ement'
p553
F0.53374233128834359
tp554
a(S'facing'
p555
F0.53333333333333333
tp556
a(S'saving'
p557
F0.53061224489795922
tp558
a(S'country'
p559
F0.52653061224489794
tp560
a(S'carrying'
p561
F0.52631578947368418
tp562
a(S'fancy'
p563
F0.52631578947368418
tp564
a(S'cherry'
p565
F0.52631578947368418
tp566
a(S'salty'
p567
F0.52380952380952384
tp568
a(S'skating'
p569
F0.52380952380952384
tp570
a(S'somebodys'
p571
F0.52173913043478259
tp572
a(S'possibility'
p573
F0.52173913043478259
tp574
a(S'craving'
p575
F0.52112676056338025
tp576
a(S'riding'
p577
F0.52000000000000002
tp578
a(S'timing'
p579
F0.51851851851851849
tp580
a(S'glory'
p581
F0.51851851851851849
tp582
a(S'emily'
p583
F0.5161290322580645
tp584
a(S'eous'
p585
F0.5161290322580645
tp586
a(S'spotify'
p587
F0.5
tp588
a(S'hobby'
p589
F0.5
tp590
a(S'ication'
p591
F0.5
tp592
a(S'freaky'
p593
F0.5
tp594
a(S'necessarily'
p595
F0.5
tp596
a(S'twenty'
p597
F0.5
tp598
a(S'typing'
p599
F0.5
tp600
a(S'ruling'
p601
F0.5
tp602
a(S'picky'
p603
F0.5
tp604
a(S'unnecessary'
p605
F0.5
tp606
a(S'partying'
p607
F0.5
tp608
a(S'puppy'
p609
F0.5
tp610
a(S'losing'
p611
F0.49655172413793103
tp612
a(S'elementary'
p613
F0.48717948717948717
tp614
a(S'johnny'
p615
F0.48648648648648651
tp616
a(S'jimmy'
p617
F0.4861111111111111
tp618
a(S'fed'
p619
F0.4838709677419355
tp620
a(S'chasing'
p621
F0.48275862068965519
tp622
a(S'driving'
p623
F0.48214285714285715
tp624
a(S'bed'
p625
F0.48214285714285715
tp626
a(S'dynasty'
p627
F0.48148148148148145
tp628
a(S'baking'
p629
F0.48148148148148145
tp630
a(S'january'
p631
F0.48101265822784811
tp632
a(S'worrying'
p633
F0.47999999999999998
tp634
a(S'angry'
p635
F0.47959183673469385
tp636
a(S'marry'
p637
F0.47826086956521741
tp638
a(S'policy'
p639
F0.47619047619047616
tp640
a(S'mighty'
p641
F0.47619047619047616
tp642
a(S'sandy'
p643
F0.47368421052631576
tp644
a(S'worry'
p645
F0.46999999999999997
tp646
a(S'loving'
p647
F0.46902654867256638
tp648
a(S'laundry'
p649
F0.46666666666666667
tp650
a(S'ricky'
p651
F0.46666666666666667
tp652
a(S'temporary'
p653
F0.46666666666666667
tp654
a(S'delivery'
p655
F0.46666666666666667
tp656
a(S'led'
p657
F0.46405228758169936
tp658
a(S'ously'
p659
F0.46376811594202899
tp660
a(S'skyping'
p661
F0.46153846153846156
tp662
a(S'juicy'
p663
F0.46153846153846156
tp664
a(S'berry'
p665
F0.46153846153846156
tp666
a(S'anthony'
p667
F0.46153846153846156
tp668
a(S'mercy'
p669
F0.45945945945945948
tp670
a(S'family'
p671
F0.45924967658473481
tp672
a(S'ling'
p673
F0.45714285714285713
tp674
a(S'creepy'
p675
F0.4563106796116505
tp676
a(S'hating'
p677
F0.45454545454545453
tp678
a(S'factory'
p679
F0.45454545454545453
tp680
a(S'ls'
p681
F0.45263157894736844
tp682
a(S'gings'
p683
F0.45161290322580644
tp684
a(S'taking'
p685
F0.45031712473572938
tp686
a(S'merry'
p687
F0.45023696682464454
tp688
a(S'ies'
p689
F0.44736842105263158
tp690
a(S'ible'
p691
F0.4467005076142132
tp692
a(S'ence'
p693
F0.44575471698113206
tp694
a(S'rudy'
p695
F0.44444444444444442
tp696
a(S'curry'
p697
F0.44444444444444442
tp698
a(S'luckily'
p699
F0.44444444444444442
tp700
a(S'nappy'
p701
F0.44444444444444442
tp702
a(S'worthy'
p703
F0.44444444444444442
tp704
a(S'ding'
p705
F0.44135802469135804
tp706
a(S'lent'
p707
F0.44117647058823528
tp708
a(S'ents'
p709
F0.44
tp710
a(S'ionally'
p711
F0.43902439024390244
tp712
a(S'ning'
p713
F0.43776824034334766
tp714
a(S'lining'
p715
F0.4375
tp716
a(S'charity'
p717
F0.4375
tp718
a(S'yayy'
p719
F0.4375
tp720
a(S'eering'
p721
F0.4375
tp722
a(S'eer'
p723
F0.4375
tp724
a(S'pretty'
p725
F0.43653846153846154
tp726
a(S'ted'
p727
F0.43650793650793651
tp728
a(S'ging'
p729
F0.43518518518518517
tp730
a(S'ably'
p731
F0.43478260869565216
tp732
a(S'y'
F0.43457943925233644
tp733
a(S'carry'
p734
F0.43396226415094341
tp735
a(S'memory'
p736
F0.43283582089552236
tp737
a(S'many'
p738
F0.43283582089552236
tp739
a(S'anatomy'
p740
F0.43181818181818182
tp741
a(S'happy'
p742
F0.43175965665236049
tp743
a(S'ated'
p744
F0.43058350100603621
tp745
a(S'katy'
p746
F0.42857142857142855
tp747
a(S'messy'
p748
F0.42857142857142855
tp749
a(S'als'
p750
F0.42857142857142855
tp751
a(S'varsity'
p752
F0.42857142857142855
tp753
a(S'philosophy'
p754
F0.42857142857142855
tp755
a(S'classy'
p756
F0.42857142857142855
tp757
a(S'irony'
p758
F0.42857142857142855
tp759
a(S'liking'
p760
F0.42857142857142855
tp761
a(S'brittany'
p762
F0.42857142857142855
tp763
a(S'everybodys'
p764
F0.42857142857142855
tp765
a(S'early'
p766
F0.4282744282744283
tp767
a(S'dying'
p768
F0.42799999999999999
tp769
a(S'able'
p770
F0.42677165354330709
tp771
a(S'red'
p772
F0.42666666666666669
tp773
a(S'ively'
p774
F0.42499999999999999
tp775
a(S'ately'
p776
F0.42424242424242425
tp777
a(S'studying'
p778
F0.42364532019704432
tp779
a(S'tommy'
p780
F0.42307692307692307
tp781
a(S'ization'
p782
F0.42307692307692307
tp783
a(S'dating'
p784
F0.42307692307692307
tp785
a(S'balcony'
p786
F0.42307692307692307
tp787
a(S'every'
p788
F0.42209631728045327
tp789
a(S'holy'
p790
F0.42148760330578511
tp791
a(S'coming'
p792
F0.42137592137592139
tp793
a(S'yayyyy'
p794
F0.42105263157894735
tp795
a(S'shy'
p796
F0.42105263157894735
tp797
a(S'ful'
p798
F0.42074363992172209
tp799
a(S'anybody'
p800
F0.42063492063492064
tp801
aa.