(lp1
(lp2
(S'ohno'
p3
F1
tp4
a(S'moreyears'
p5
F1
tp6
a(S'hot'
p7
F1
tp8
a(S'beardown'
p9
F1
tp10
a(S'getonmylevel'
p11
F1
tp12
a(S'real'
p13
F1
tp14
a(S'dmb'
p15
F1
tp16
a(S'shoutout'
p17
F1
tp18
a(S'obama'
p19
F0.96296296296296291
tp20
a(S'americanhorrorstory'
p21
F0.94444444444444442
tp22
a(S'foreveralone'
p23
F0.9285714285714286
tp24
a(S'reallythough'
p25
F0.90909090909090906
tp26
a(S'p'
F0.90000000000000002
tp27
a(S'life'
p28
F0.90000000000000002
tp29
a(S'desperate'
p30
F0.88888888888888884
tp31
a(S'getweird'
p32
F0.875
tp33
a(S'homecoming'
p34
F0.8571428571428571
tp35
a(S'sandy'
p36
F0.8571428571428571
tp37
a(S'randomthoughts'
p38
F0.8571428571428571
tp39
a(S'collegeprobs'
p40
F0.84999999999999998
tp41
a(S'days'
p42
F0.84313725490196079
tp43
a(S'ftw'
p44
F0.83333333333333337
tp45
a(S'nom'
p46
F0.81818181818181823
tp47
a(S'swerve'
p48
F0.81818181818181823
tp49
a(S'turnup'
p50
F0.80769230769230771
tp51
a(S'repost'
p52
F0.80000000000000004
tp53
a(S'regram'
p54
F0.80000000000000004
tp55
a(S'chicago'
p56
F0.7857142857142857
tp57
a(S'shutup'
p58
F0.7857142857142857
tp59
a(S'ratchet'
p60
F0.7857142857142857
tp61
a(S'yesplease'
p62
F0.7857142857142857
tp63
a(S'overit'
p64
F0.77777777777777779
tp65
a(S'winter'
p66
F0.77777777777777779
tp67
a(S'worthit'
p68
F0.77777777777777779
tp69
a(S'oomf'
p70
F0.77685950413223137
tp71
a(S'naptime'
p72
F0.76923076923076927
tp73
a(S'wut'
p74
F0.76923076923076927
tp75
a(S'classy'
p76
F0.76470588235294112
tp77
a(S'oladipo'
p78
F0.75
tp79
a(S'neveragain'
p80
F0.75
tp81
a(S'frat'
p82
F0.75
tp83
a(S'bye'
p84
F0.75
tp85
a(S'lonely'
p86
F0.75
tp87
a(S'done'
p88
F0.75
tp89
a(S'stfu'
p90
F0.75
tp91
a(S'lionking'
p92
F0.75
tp93
a(S'nowplaying'
p94
F0.75
tp95
a(S'nerd'
p96
F0.75
tp97
a(S'truuu'
p98
F0.75
tp99
a(S'college'
p100
F0.74193548387096775
tp101
a(S'election'
p102
F0.7407407407407407
tp103
a(S'food'
p104
F0.73333333333333328
tp105
a(S'success'
p106
F0.72972972972972971
tp107
a(S'fuck'
p108
F0.72727272727272729
tp109
a(S'neverforget'
p110
F0.72727272727272729
tp111
a(S'letsdothis'
p112
F0.72727272727272729
tp113
a(S'nofilter'
p114
F0.72413793103448276
tp115
a(S'thatisall'
p116
F0.72222222222222221
tp117
a(S'win'
p118
F0.7142857142857143
tp119
a(S'throwbackthursday'
p120
F0.7142857142857143
tp121
a(S'yourewelcome'
p122
F0.70833333333333337
tp123
a(S'bored'
p124
F0.70833333333333337
tp125
a(S'collegeprobz'
p126
F0.69999999999999996
tp127
a(S'bloomington'
p128
F0.69999999999999996
tp129
a(S'wishmeluck'
p130
F0.69999999999999996
tp131
a(S'bestdayever'
p132
F0.69999999999999996
tp133
a(S'fact'
p134
F0.69565217391304346
tp135
a(S'ugh'
p136
F0.69565217391304346
tp137
a(S'himym'
p138
F0.69230769230769229
tp139
a(S'sad'
p140
F0.69230769230769229
tp141
a(S'noshavenovember'
p142
F0.69230769230769229
tp143
a(S'socute'
p144
F0.69230769230769229
tp145
a(S'really'
p146
F0.6875
tp147
a(S'respect'
p148
F0.6875
tp149
a(S'swag'
p150
F0.68421052631578949
tp151
a(S'addicted'
p152
F0.68421052631578949
tp153
a(S'firstworldproblems'
p154
F0.68181818181818177
tp155
a(S'thestruggle'
p156
F0.66666666666666663
tp157
a(S'thingsigetalot'
p158
F0.66666666666666663
tp159
a(S'happythanksgiving'
p160
F0.66666666666666663
tp161
a(S'fuckme'
p162
F0.66666666666666663
tp163
a(S'springbreak'
p164
F0.66666666666666663
tp165
a(S'amen'
p166
F0.66666666666666663
tp167
a(S'pissed'
p168
F0.66666666666666663
tp169
a(S'hahaha'
p170
F0.66666666666666663
tp171
a(S'blackfriday'
p172
F0.66666666666666663
tp173
a(S'hoosierpride'
p174
F0.66666666666666663
tp175
a(S'oops'
p176
F0.65151515151515149
tp177
a(S'cool'
p178
F0.6470588235294118
tp179
a(S'truestory'
p180
F0.6470588235294118
tp181
a(S'fall'
p182
F0.6428571428571429
tp183
a(S'perfect'
p184
F0.6428571428571429
tp185
a(S'fml'
p186
F0.6428571428571429
tp187
a(S'why'
p188
F0.6428571428571429
tp189
a(S'q'
F0.64102564102564108
tp190
a(S'iufb'
p191
F0.63749999999999996
tp192
a(S'beautiful'
p193
F0.63636363636363635
tp194
a(S'muchneeded'
p195
F0.63636363636363635
tp196
a(S'yum'
p197
F0.63636363636363635
tp198
a(S'procrastination'
p199
F0.63636363636363635
tp200
a(S'finalsweek'
p201
F0.62068965517241381
tp202
a(S'nolie'
p203
F0.61538461538461542
tp204
a(S'storyofmylife'
p205
F0.61538461538461542
tp206
a(S'challengeaccepted'
p207
F0.61538461538461542
tp208
a(S'scared'
p209
F0.61538461538461542
tp210
a(S'snapchat'
p211
F0.61538461538461542
tp212
a(S'dead'
p213
F0.61290322580645162
tp214
a(S'fail'
p215
F0.61111111111111116
tp216
a(S'jk'
p217
F0.61111111111111116
tp218
a(S'damn'
p219
F0.61111111111111116
tp220
a(S'hoosiers'
p221
F0.61038961038961037
tp222
a(S'howimetmybestfriend'
p223
F0.6071428571428571
tp224
a(S''
F0.60227272727272729
tp225
a(S'confessionnight'
p226
F0.59999999999999998
tp227
a(S'casual'
p228
F0.59999999999999998
tp229
a(S'haha'
p230
F0.59999999999999998
tp231
a(S'nuffsaid'
p232
F0.59999999999999998
tp233
a(S'assemblyhall'
p234
F0.59999999999999998
tp235
a(S'america'
p236
F0.59999999999999998
tp237
a(S'inthgrade'
p238
F0.59999999999999998
tp239
a(S'wow'
p240
F0.59999999999999998
tp241
a(S'fallbreak'
p242
F0.59999999999999998
tp243
a(S'wtf'
p244
F0.59999999999999998
tp245
a(S'puppylove'
p246
F0.59999999999999998
tp247
a(S'crying'
p248
F0.59999999999999998
tp249
a(S'lol'
p250
F0.59999999999999998
tp251
a(S'proud'
p252
F0.59999999999999998
tp253
a(S'shit'
p254
F0.59999999999999998
tp255
a(S'thisisiu'
p256
F0.59999999999999998
tp257
a(S'rush'
p258
F0.59259259259259256
tp259
a(S'subtweet'
p260
F0.59090909090909094
tp261
a(S'yes'
p262
F0.59090909090909094
tp263
a(S'happy'
p264
F0.59090909090909094
tp265
a(S'iu'
p266
F0.58857142857142852
tp267
a(S'pitchperfect'
p268
F0.58823529411764708
tp269
a(S'justsayin'
p270
F0.58333333333333337
tp271
a(S'accomplished'
p272
F0.58333333333333337
tp273
a(S'youdabest'
p274
F0.58333333333333337
tp275
a(S'assholes'
p276
F0.58333333333333337
tp277
a(S'ifonly'
p278
F0.58333333333333337
tp279
a(S'goodnight'
p280
F0.57894736842105265
tp281
a(S'picstitch'
p282
F0.57894736842105265
tp283
a(S'goodtimes'
p284
F0.57692307692307687
tp285
a(S'mylife'
p286
F0.5757575757575758
tp287
a(S'tbt'
p288
F0.5738255033557047
tp289
a(S'easilyattractedto'
p290
F0.5714285714285714
tp291
a(S'freezing'
p292
F0.5714285714285714
tp293
a(S'vsfashionshow'
p294
F0.5714285714285714
tp295
a(S'watchout'
p296
F0.5714285714285714
tp297
a(S'annoying'
p298
F0.5714285714285714
tp299
a(S'noshame'
p300
F0.56756756756756754
tp301
a(S'not'
p302
F0.56521739130434778
tp303
a(S'nye'
p304
F0.5625
tp305
a(S'iupains'
p306
F0.5625
tp307
a(S'igotathingfor'
p308
F0.56000000000000005
tp309
a(S'amazing'
p310
F0.55000000000000004
tp311
a(S'bff'
p312
F0.55000000000000004
tp313
a(S'collegelife'
p314
F0.55000000000000004
tp315
a(S'gome'
p316
F0.54545454545454541
tp317
a(S'fingerscrossed'
p318
F0.54545454545454541
tp319
a(S'scary'
p320
F0.54545454545454541
tp321
a(S'besties'
p322
F0.54545454545454541
tp323
a(S'letsgetweird'
p324
F0.54545454545454541
tp325
a(S'thanks'
p326
F0.54545454545454541
tp327
a(S'herewego'
p328
F0.54545454545454541
tp329
a(S'bucketlist'
p330
F0.54545454545454541
tp331
a(S'sick'
p332
F0.54545454545454541
tp333
a(S'whoops'
p334
F0.54166666666666663
tp335
a(S'thanksgiving'
p336
F0.54166666666666663
tp337
a(S'catfish'
p338
F0.54166666666666663
tp339
a(S'sorrynotsorry'
p340
F0.54000000000000004
tp341
a(S'thankyou'
p342
F0.53846153846153844
tp343
a(S'thanksgivingbreak'
p344
F0.53846153846153844
tp345
a(S'starving'
p346
F0.53846153846153844
tp347
a(S'disappointed'
p348
F0.53846153846153844
tp349
a(S'excited'
p350
F0.53333333333333333
tp351
a(S'judgeme'
p352
F0.53333333333333333
tp353
a(S'missit'
p354
F0.53333333333333333
tp355
a(S'obsessed'
p356
F0.53191489361702127
tp357
a(S'gameday'
p358
F0.53125
tp359
a(S'nervous'
p360
F0.52941176470588236
tp361
a(S'duh'
p362
F0.52941176470588236
tp363
a(S'toocute'
p364
F0.52941176470588236
tp365
a(S'truth'
p366
F0.52631578947368418
tp367
a(S'mindblown'
p368
F0.52380952380952384
tp369
a(S'strugglebus'
p370
F0.52380952380952384
tp371
a(S'sohappy'
p372
F0.52000000000000002
tp373
a(S'indiana'
p374
F0.52000000000000002
tp375
a(S'thankgod'
p376
F0.52000000000000002
tp377
a(S'home'
p378
F0.51724137931034486
tp379
a(S'finals'
p380
F0.51162790697674421
tp381
a(S'love'
p382
F0.50485436893203883
tp383
a(S'decisions'
p384
F0.5
tp385
a(S'helpme'
p386
F0.5
tp387
a(S'tired'
p388
F0.5
tp389
a(S'moredays'
p390
F0.5
tp391
a(S'loser'
p392
F0.5
tp393
a(S'weird'
p394
F0.5
tp395
a(S'rip'
p396
F0.5
tp397
a(S'awesome'
p398
F0.5
tp399
aa(lp400
(S'romneyryan'
p401
F1
tp402
a(S'decisionsdecisions'
p403
F1
tp404
a(S'omnomnom'
p405
F1
tp406
a(S'lyricsiliketoscream'
p407
F1
tp408
a(S'bncollege'
p409
F1
tp410
a(S'nobama'
p411
F1
tp412
a(S'proudofyou'
p413
F1
tp414
a(S'pussy'
p415
F1
tp416
a(S'thatawkwardmomentwhen'
p417
F0.94999999999999996
tp418
a(S'seriouslythough'
p419
F0.94117647058823528
tp420
a(S'iusoccer'
p421
F0.90476190476190477
tp422
a(S'colts'
p423
F0.89473684210526316
tp424
a(S'represent'
p425
F0.88888888888888884
tp426
a(S'gossipgirl'
p427
F0.88888888888888884
tp428
a(S'recruitment'
p429
F0.88888888888888884
tp430
a(S'word'
p431
F0.88888888888888884
tp432
a(S'coltstrong'
p433
F0.88888888888888884
tp434
a(S'godisgood'
p435
F0.88888888888888884
tp436
a(S'b'
F0.875
tp437
a(S'frustrated'
p438
F0.875
tp439
a(S'elf'
p440
F0.875
tp441
a(S'stoked'
p442
F0.875
tp443
a(S'bummer'
p444
F0.8571428571428571
tp445
a(S'gocolts'
p446
F0.8571428571428571
tp447
a(S'imissyou'
p448
F0.8571428571428571
tp449
a(S'little'
p450
F0.8571428571428571
tp451
a(S'stalker'
p452
F0.8571428571428571
tp453
a(S'missedyou'
p454
F0.8571428571428571
tp455
a(S'lovelovelove'
p456
F0.8571428571428571
tp457
a(S'icandothis'
p458
F0.84615384615384615
tp459
a(S'chuckstrong'
p460
F0.83870967741935487
tp461
a(S'sigh'
p462
F0.83333333333333337
tp463
a(S'ndiana'
p464
F0.83333333333333337
tp465
a(S'puckfurdue'
p466
F0.83333333333333337
tp467
a(S'sctop'
p468
F0.81818181818181823
tp469
a(S'tooexcited'
p470
F0.81818181818181823
tp471
a(S'iubb'
p472
F0.81533520674427939
tp473
a(S'lovehim'
p474
F0.80000000000000004
tp475
a(S'collegegameday'
p476
F0.79166666666666663
tp477
a(S'endoftheworldconfession'
p478
F0.77777777777777779
tp479
a(S'happygirl'
p480
F0.77777777777777779
tp481
a(S'needsleep'
p482
F0.77777777777777779
tp483
a(S'soblessed'
p484
F0.77777777777777779
tp485
a(S'grr'
p486
F0.77777777777777779
tp487
a(S'tistheseason'
p488
F0.76923076923076927
tp489
a(S'bitch'
p490
F0.76923076923076927
tp491
a(S'tfm'
p492
F0.76923076923076927
tp493
a(S'friends'
p494
F0.76923076923076927
tp495
a(S'nw'
p496
F0.76666666666666672
tp497
a(S'bannerup'
p498
F0.76000000000000001
tp499
a(S'k'
F0.75
tp500
a(S'calloutsomebodybeautiful'
p501
F0.75
tp502
a(S'ihaveseeneveryepisodeof'
p503
F0.75
tp504
a(S'sosad'
p505
F0.75
tp506
a(S'justmyluck'
p507
F0.75
tp508
a(S'whatthehell'
p509
F0.75
tp510
a(S'thanksmom'
p511
F0.75
tp512
a(S'damnit'
p513
F0.75
tp514
a(S'collegecup'
p515
F0.75
tp516
a(S'myfavorite'
p517
F0.75
tp518
a(S'hater'
p519
F0.75
tp520
a(S'big'
p521
F0.75
tp522
a(S'nice'
p523
F0.75
tp524
a(S'usa'
p525
F0.75
tp526
a(S'cantbreathe'
p527
F0.75
tp528
a(S'samstrong'
p529
F0.73333333333333328
tp530
a(S'beattheheels'
p531
F0.72727272727272729
tp532
a(S'goodtobehome'
p533
F0.72727272727272729
tp534
a(S'dafuck'
p535
F0.72727272727272729
tp536
a(S'btownbound'
p537
F0.72727272727272729
tp538
a(S'idiot'
p539
F0.72727272727272729
tp540
a(S'boilerdown'
p541
F0.72413793103448276
tp542
a(S'dumbass'
p543
F0.72222222222222221
tp544
a(S'onlyatiu'
p545
F0.71999999999999997
tp546
a(S'typical'
p547
F0.71875
tp548
a(S'np'
p549
F0.7151515151515152
tp550
a(S'sogood'
p551
F0.7142857142857143
tp552
a(S'thingsmydaddytaughtme'
p553
F0.7142857142857143
tp554
a(S'beatmichigan'
p555
F0.7142857142857143
tp556
a(S'yay'
p557
F0.70588235294117652
tp558
a(S'yikes'
p559
F0.69999999999999996
tp560
a(S'firstworldpains'
p561
F0.69999999999999996
tp562
a(S'iub'
p563
F0.69999999999999996
tp564
a(S'twitterless'
p565
F0.69999999999999996
tp566
a(S'summer'
p567
F0.69999999999999996
tp568
a(S'smh'
p569
F0.69158878504672894
tp570
a(S'nbd'
p571
F0.6875
tp572
a(S'lovethem'
p573
F0.68421052631578949
tp574
a(S'bestfriends'
p575
F0.68421052631578949
tp576
a(S'goodluck'
p577
F0.68421052631578949
tp578
a(S'hilarious'
p579
F0.6785714285714286
tp580
a(S'loveit'
p581
F0.67213114754098358
tp582
a(S'lolz'
p583
F0.66666666666666663
tp584
a(S'iloveyou'
p585
F0.66666666666666663
tp586
a(S'sucks'
p587
F0.66666666666666663
tp588
a(S'halloween'
p589
F0.66666666666666663
tp590
a(S'deadweek'
p591
F0.66666666666666663
tp592
a(S'reunited'
p593
F0.66666666666666663
tp594
a(S'truelove'
p595
F0.66666666666666663
tp596
a(S'ohwait'
p597
F0.66666666666666663
tp598
a(S'sos'
p599
F0.66666666666666663
tp600
a(S'gorgeous'
p601
F0.66666666666666663
tp602
a(S'roomies'
p603
F0.66666666666666663
tp604
a(S'pll'
p605
F0.65714285714285714
tp606
a(S'loveyou'
p607
F0.65441176470588236
tp608
a(S'merica'
p609
F0.65000000000000002
tp610
a(S'hoosierhysteria'
p611
F0.64444444444444449
tp612
a(S'soproud'
p613
F0.6428571428571429
tp614
a(S'ubb'
p615
F0.6428571428571429
tp616
a(S'impatient'
p617
F0.6428571428571429
tp618
a(S'merrychristmas'
p619
F0.64000000000000001
tp620
a(S'yummy'
p621
F0.63636363636363635
tp622
a(S'great'
p623
F0.63636363636363635
tp624
a(S'hurryup'
p625
F0.63636363636363635
tp626
a(S'thebest'
p627
F0.63636363636363635
tp628
a(S'fun'
p629
F0.63636363636363635
tp630
a(S'sleepy'
p631
F0.63636363636363635
tp632
a(S'comeon'
p633
F0.63636363636363635
tp634
a(S'confused'
p635
F0.63157894736842102
tp636
a(S'help'
p637
F0.62745098039215685
tp638
a(S'cantwait'
p639
F0.62666666666666671
tp640
a(S'notokay'
p641
F0.625
tp642
a(S'priceless'
p643
F0.625
tp644
a(S'sorry'
p645
F0.61904761904761907
tp646
a(S'shitnoonesays'
p647
F0.61764705882352944
tp648
a(S'nomnomnom'
p649
F0.61538461538461542
tp650
a(S'goaway'
p651
F0.61538461538461542
tp652
a(S'jealous'
p653
F0.61538461538461542
tp654
a(S'butreally'
p655
F0.61538461538461542
tp656
a(S'meow'
p657
F0.61538461538461542
tp658
a(S'thankful'
p659
F0.61538461538461542
tp660
a(S'hoosier'
p661
F0.61538461538461542
tp662
a(S'toofunny'
p663
F0.61111111111111116
tp664
a(S'badass'
p665
F0.61111111111111116
tp666
a(S'memories'
p667
F0.61111111111111116
tp668
a(S'daymade'
p669
F0.60869565217391308
tp670
a(S'score'
p671
F0.59999999999999998
tp672
a(S'gtfo'
p673
F0.59999999999999998
tp674
a(S'cute'
p675
F0.59999999999999998
tp676
a(S'heaven'
p677
F0.59999999999999998
tp678
a(S'saidnooneever'
p679
F0.59999999999999998
tp680
a(S'isthisreallife'
p681
F0.59999999999999998
tp682
a(S'sweet'
p683
F0.59999999999999998
tp684
a(S'tooearly'
p685
F0.59999999999999998
tp686
a(S'wishfulthinking'
p687
F0.59999999999999998
tp688
a(S'loveyouguys'
p689
F0.59999999999999998
tp690
a(S'hoosiernation'
p691
F0.59649122807017541
tp692
a(S'pathetic'
p693
F0.59090909090909094
tp694
a(S'btown'
p695
F0.58823529411764708
tp696
a(S'loveher'
p697
F0.58695652173913049
tp698
a(S'weirdo'
p699
F0.58333333333333337
tp700
a(S'storybehindmyscar'
p701
F0.58333333333333337
tp702
a(S'clutch'
p703
F0.58333333333333337
tp704
a(S'toogood'
p705
F0.58333333333333337
tp706
a(S'stop'
p707
F0.58333333333333337
tp708
a(S'dedication'
p709
F0.58333333333333337
tp710
a(S'iums'
p711
F0.58333333333333337
tp712
a(S'dying'
p713
F0.57999999999999996
tp714
a(S'snow'
p715
F0.57894736842105265
tp716
a(S'winning'
p717
F0.57746478873239437
tp718
a(S'ouch'
p719
F0.57692307692307687
tp720
a(S'hellyeah'
p721
F0.57692307692307687
tp722
a(S'christmas'
p723
F0.57692307692307687
tp724
a(S'missyou'
p725
F0.57446808510638303
tp726
a(S'embarrassing'
p727
F0.5714285714285714
tp728
a(S'goodday'
p729
F0.5714285714285714
tp730
a(S'sarcasm'
p731
F0.5714285714285714
tp732
a(S'talklikeyourbestfriend'
p733
F0.5714285714285714
tp734
a(S'teamnosleep'
p735
F0.5714285714285714
tp736
a(S'exhausted'
p737
F0.5714285714285714
tp738
a(S'gross'
p739
F0.5625
tp740
a(S'beatunc'
p741
F0.5625
tp742
a(S'thisisindiana'
p743
F0.56000000000000005
tp744
a(S'finally'
p745
F0.55882352941176472
tp746
a(S'ftk'
p747
F0.55737704918032782
tp748
a(S'suckstosuck'
p749
F0.55555555555555558
tp750
a(S'seriously'
p751
F0.55555555555555558
tp752
a(S'priorities'
p753
F0.55555555555555558
tp754
a(S'gohoosiers'
p755
F0.55555555555555558
tp756
a(S'omg'
p757
F0.55555555555555558
tp758
a(S'nosleep'
p759
F0.55555555555555558
tp760
a(S'happytweet'
p761
F0.55555555555555558
tp762
a(S'boom'
p763
F0.55555555555555558
tp764
a(S'iudm'
p765
F0.55000000000000004
tp766
a(S'grateful'
p767
F0.54545454545454541
tp768
a(S'twins'
p769
F0.54545454545454541
tp770
a(S'sleepdeprived'
p771
F0.54545454545454541
tp772
a(S'ew'
p773
F0.54545454545454541
tp774
a(S'pumped'
p775
F0.54545454545454541
tp776
a(S'leggo'
p777
F0.54545454545454541
tp778
a(S'dontcare'
p779
F0.54545454545454541
tp780
a(S'tradition'
p781
F0.54545454545454541
tp782
a(S'teamiphone'
p783
F0.54545454545454541
tp784
a(S'what'
p785
F0.54054054054054057
tp786
a(S'stressed'
p787
F0.53846153846153844
tp788
a(S'favorite'
p789
F0.53846153846153844
tp790
a(S'bullshit'
p791
F0.53846153846153844
tp792
a(S'stupid'
p793
F0.53846153846153844
tp794
a(S'realtalk'
p795
F0.53846153846153844
tp796
a(S'yolo'
p797
F0.53846153846153844
tp798
aa.