(lp1
(lp2
(S'typo'
p3
F1
tp4
a(S'zumba'
p5
F1
tp6
a(S'fin'
p7
F1
tp8
a(S'horrid'
p9
F1
tp10
a(S'soundcloud'
p11
F1
tp12
a(S'spoiler'
p13
F1
tp14
a(S'hahahaa'
p15
F1
tp16
a(S'aaliyah'
p17
F1
tp18
a(S'omw'
p19
F1
tp20
a(S'smdh'
p21
F1
tp22
a(S'nude'
p23
F1
tp24
a(S'amor'
p25
F1
tp26
a(S'castleton'
p27
F1
tp28
a(S'bogus'
p29
F1
tp30
a(S'refil'
p31
F1
tp32
a(S'hbo'
p33
F1
tp34
a(S'lmfaoooo'
p35
F1
tp36
a(S'elector'
p37
F1
tp38
a(S'cashier'
p39
F1
tp40
a(S'reed'
p41
F1
tp42
a(S'gee'
p43
F1
tp44
a(S'storag'
p45
F1
tp46
a(S'android'
p47
F1
tp48
a(S'ant'
p49
F1
tp50
a(S'supernatur'
p51
F1
tp52
a(S'kiki'
p53
F1
tp54
a(S'senat'
p55
F1
tp56
a(S'postpon'
p57
F1
tp58
a(S'struck'
p59
F1
tp60
a(S'omggg'
p61
F1
tp62
a(S'industri'
p63
F1
tp64
a(S'lmfaooo'
p65
F1
tp66
a(S'womp'
p67
F1
tp68
a(S'archiv'
p69
F1
tp70
a(S'fk'
p71
F1
tp72
a(S'notifi'
p73
F1
tp74
a(S'misrabl'
p75
F1
tp76
a(S'bennett'
p77
F1
tp78
a(S'oooooh'
p79
F1
tp80
a(S'wyd'
p81
F1
tp82
a(S'gabi'
p83
F1
tp84
a(S'wen'
p85
F1
tp86
a(S'lmaooooo'
p87
F1
tp88
a(S'shat'
p89
F1
tp90
a(S'coldplay'
p91
F1
tp92
a(S'chore'
p93
F1
tp94
a(S'boyd'
p95
F1
tp96
a(S'est'
p97
F1
tp98
a(S'scoobi'
p99
F1
tp100
a(S'payday'
p101
F1
tp102
a(S'lmfaoo'
p103
F1
tp104
a(S'horni'
p105
F1
tp106
a(S'simba'
p107
F1
tp108
a(S'awhhhh'
p109
F1
tp110
a(S'franki'
p111
F1
tp112
a(S'fuckeri'
p113
F1
tp114
a(S'negro'
p115
F1
tp116
a(S'counter'
p117
F1
tp118
a(S'lili'
p119
F1
tp120
a(S'melissa'
p121
F1
tp122
a(S'treasur'
p123
F1
tp124
a(S'revis'
p125
F1
tp126
a(S'japanes'
p127
F1
tp128
a(S'viewer'
p129
F1
tp130
a(S'linda'
p131
F1
tp132
a(S'brandi'
p133
F1
tp134
a(S'grrr'
p135
F1
tp136
a(S'sequel'
p137
F1
tp138
a(S'buffa'
p139
F1
tp140
a(S'lmaoo'
p141
F0.98717948717948723
tp142
a(S'gaga'
p143
F0.98639455782312924
tp144
a(S'angela'
p145
F0.984375
tp146
a(S'prompt'
p147
F0.9821428571428571
tp148
a(S'tbh'
p149
F0.98165137614678899
tp150
a(S'lmfaooooo'
p151
F0.98039215686274506
tp152
a(S'cc'
p153
F0.97619047619047616
tp154
a(S'lmaooo'
p155
F0.97058823529411764
tp156
a(S'goodmorn'
p157
F0.96610169491525422
tp158
a(S'ampamp'
p159
F0.96590909090909094
tp160
a(S'smfh'
p161
F0.96551724137931039
tp162
a(S'brazil'
p163
F0.9642857142857143
tp164
a(S'idek'
p165
F0.9642857142857143
tp166
a(S'dms'
p167
F0.96296296296296291
tp168
a(S'kok'
p169
F0.96153846153846156
tp170
a(S'ikr'
p171
F0.96153846153846156
tp172
a(S'que'
p173
F0.96103896103896103
tp174
a(S'nicol'
p175
F0.95454545454545459
tp176
a(S'lmaoooo'
p177
F0.95238095238095233
tp178
a(S'todo'
p179
F0.94999999999999996
tp180
a(S'lbs'
p181
F0.94915254237288138
tp182
a(S'ughhhh'
p183
F0.94736842105263153
tp184
a(S'mainstream'
p185
F0.94736842105263153
tp186
a(S'unemploy'
p187
F0.94444444444444442
tp188
a(S'jasmin'
p189
F0.94285714285714284
tp190
a(S'ralph'
p191
F0.9419354838709677
tp192
a(S'ik'
p193
F0.94117647058823528
tp194
a(S'ili'
p195
F0.94117647058823528
tp196
a(S'peach'
p197
F0.94117647058823528
tp198
a(S'wii'
p199
F0.94117647058823528
tp200
a(S'miguel'
p201
F0.94117647058823528
tp202
a(S'jessi'
p203
F0.93939393939393945
tp204
a(S'coo'
p205
F0.93827160493827155
tp206
a(S'pork'
p207
F0.9375
tp208
a(S'mhm'
p209
F0.9375
tp210
a(S'puerto'
p211
F0.9375
tp212
a(S'goddamn'
p213
F0.93478260869565222
tp214
a(S'con'
p215
F0.93333333333333335
tp216
a(S'moe'
p217
F0.93333333333333335
tp218
a(S'suspect'
p219
F0.93333333333333335
tp220
a(S'macaroni'
p221
F0.93333333333333335
tp222
a(S'upgrad'
p223
F0.93333333333333335
tp224
a(S'photoshop'
p225
F0.93333333333333335
tp226
a(S'rec'
p227
F0.93333333333333335
tp228
a(S'hm'
p229
F0.93333333333333335
tp230
a(S'tweak'
p231
F0.93181818181818177
tp232
a(S'alfredo'
p233
F0.93103448275862066
tp234
a(S'wbu'
p235
F0.9285714285714286
tp236
a(S'data'
p237
F0.9285714285714286
tp238
a(S'fund'
p239
F0.9285714285714286
tp240
a(S'weav'
p241
F0.92592592592592593
tp242
a(S'shrug'
p243
F0.92537313432835822
tp244
a(S'sorta'
p245
F0.92307692307692313
tp246
a(S'pyramid'
p247
F0.92307692307692313
tp248
a(S'oral'
p249
F0.92307692307692313
tp250
a(S'graviti'
p251
F0.92307692307692313
tp252
a(S'miseri'
p253
F0.92307692307692313
tp254
a(S'barf'
p255
F0.92307692307692313
tp256
a(S'labor'
p257
F0.92307692307692313
tp258
a(S'statist'
p259
F0.92307692307692313
tp260
a(S'puff'
p261
F0.92307692307692313
tp262
a(S'kiddo'
p263
F0.92307692307692313
tp264
a(S'spam'
p265
F0.92105263157894735
tp266
a(S'acoust'
p267
F0.92000000000000004
tp268
a(S'smh'
p269
F0.91691842900302112
tp270
a(S'brb'
p271
F0.91666666666666663
tp272
a(S'mi'
p273
F0.91666666666666663
tp274
a(S'reduc'
p275
F0.91666666666666663
tp276
a(S'deadlin'
p277
F0.91666666666666663
tp278
a(S'kush'
p279
F0.91666666666666663
tp280
a(S'temptat'
p281
F0.91666666666666663
tp282
a(S'y'
F0.91666666666666663
tp283
a(S'optimist'
p284
F0.91666666666666663
tp285
a(S'wade'
p286
F0.91666666666666663
tp287
a(S'ihop'
p288
F0.91304347826086951
tp289
a(S'actin'
p290
F0.91304347826086951
tp291
a(S'boredom'
p292
F0.91304347826086951
tp293
a(S'nigga'
p294
F0.91217564870259482
tp295
a(S'shorter'
p296
F0.90909090909090906
tp297
a(S'washer'
p298
F0.90909090909090906
tp299
a(S'whatnot'
p300
F0.90909090909090906
tp301
a(S'gram'
p302
F0.90909090909090906
tp303
a(S'oki'
p304
F0.90909090909090906
tp305
a(S'fucka'
p306
F0.90909090909090906
tp307
a(S'syrup'
p308
F0.90909090909090906
tp309
a(S'dun'
p310
F0.90909090909090906
tp311
a(S'teleport'
p312
F0.90909090909090906
tp313
a(S'simpson'
p314
F0.90909090909090906
tp315
a(S'sigh'
p316
F0.90625
tp317
a(S'whack'
p318
F0.90476190476190477
tp319
a(S'brave'
p320
F0.90410958904109584
tp321
a(S'hun'
p322
F0.90322580645161288
tp323
a(S'buzz'
p324
F0.90196078431372551
tp325
a(S'tragic'
p326
F0.90000000000000002
tp327
a(S'korea'
p328
F0.90000000000000002
tp329
a(S'ltltltltltltlt'
p330
F0.90000000000000002
tp331
a(S'kohl'
p332
F0.90000000000000002
tp333
a(S'creed'
p334
F0.90000000000000002
tp335
a(S'villain'
p336
F0.90000000000000002
tp337
a(S'soy'
p338
F0.90000000000000002
tp339
a(S'msg'
p340
F0.90000000000000002
tp341
a(S'squat'
p342
F0.90000000000000002
tp343
a(S'jazz'
p344
F0.90000000000000002
tp345
a(S'ken'
p346
F0.90000000000000002
tp347
a(S'infinit'
p348
F0.90000000000000002
tp349
a(S'mutha'
p350
F0.90000000000000002
tp351
a(S'tina'
p352
F0.90000000000000002
tp353
a(S'founder'
p354
F0.90000000000000002
tp355
a(S'wassup'
p356
F0.90000000000000002
tp357
a(S'script'
p358
F0.90000000000000002
tp359
a(S'contrari'
p360
F0.90000000000000002
tp361
a(S'boyz'
p362
F0.90000000000000002
tp363
a(S'diff'
p364
F0.90000000000000002
tp365
a(S'toddler'
p366
F0.90000000000000002
tp367
a(S'assassin'
p368
F0.90000000000000002
tp369
a(S'luci'
p370
F0.90000000000000002
tp371
a(S'conan'
p372
F0.90000000000000002
tp373
a(S'nocturn'
p374
F0.90000000000000002
tp375
a(S'throne'
p376
F0.90000000000000002
tp377
a(S'lbvs'
p378
F0.89655172413793105
tp379
a(S'rico'
p380
F0.89473684210526316
tp381
a(S'thx'
p382
F0.89473684210526316
tp383
a(S'or'
p384
F0.8928571428571429
tp385
a(S'blunt'
p386
F0.89130434782608692
tp387
a(S'blog'
p388
F0.89130434782608692
tp389
a(S'rug'
p390
F0.88888888888888884
tp391
a(S'path'
p392
F0.88888888888888884
tp393
a(S'phase'
p394
F0.88888888888888884
tp395
a(S'logan'
p396
F0.88888888888888884
tp397
a(S'korean'
p398
F0.88888888888888884
tp399
a(S'donald'
p400
F0.88888888888888884
tp401
aa(lp402
(S'hollowel'
p403
F1
tp404
a(S'fratti'
p405
F1
tp406
a(S'serena'
p407
F1
tp408
a(S'syracus'
p409
F1
tp410
a(S'abel'
p411
F0.97058823529411764
tp412
a(S'vonleh'
p413
F0.9642857142857143
tp414
a(S'leah'
p415
F0.9375
tp416
a(S'iowa'
p417
F0.93333333333333335
tp418
a(S'hanner'
p419
F0.93150684931506844
tp420
a(S'rebound'
p421
F0.9285714285714286
tp422
a(S'etherington'
p423
F0.92500000000000004
tp424
a(S'concuss'
p425
F0.92307692307692313
tp426
a(S'joey'
p427
F0.92307692307692313
tp428
a(S'turnov'
p429
F0.92307692307692313
tp430
a(S'elston'
p431
F0.92156862745098034
tp432
a(S'lax'
p433
F0.91666666666666663
tp434
a(S'troy'
p435
F0.91489361702127658
tp436
a(S'oladipo'
p437
F0.9145299145299145
tp438
a(S'diagnos'
p439
F0.90909090909090906
tp440
a(S'rejoic'
p441
F0.90909090909090906
tp442
a(S'acl'
p443
F0.90909090909090906
tp444
a(S'ras'
p445
F0.90909090909090906
tp446
a(S'slope'
p447
F0.90000000000000002
tp448
a(S'elit'
p449
F0.90000000000000002
tp450
a(S'jurkin'
p451
F0.89090909090909087
tp452
a(S'watford'
p453
F0.88961038961038963
tp454
a(S'dayz'
p455
F0.88888888888888884
tp456
a(S'perea'
p457
F0.88888888888888884
tp458
a(S'crean'
p459
F0.88888888888888884
tp460
a(S'whatta'
p461
F0.88888888888888884
tp462
a(S'uk'
p463
F0.88888888888888884
tp464
a(S'shooter'
p465
F0.88
tp466
a(S'victor'
p467
F0.87654320987654322
tp468
a(S'hull'
p469
F0.87394957983193278
tp470
a(S'zeller'
p471
F0.87378640776699024
tp472
a(S'premium'
p473
F0.8666666666666667
tp474
a(S'womb'
p475
F0.8666666666666667
tp476
a(S'burk'
p477
F0.86363636363636365
tp478
a(S'cuteemerg'
p479
F0.8571428571428571
tp480
a(S'remi'
p481
F0.85245901639344257
tp482
a(S'starter'
p483
F0.85106382978723405
tp484
a(S'krispi'
p485
F0.84615384615384615
tp486
a(S'jen'
p487
F0.84615384615384615
tp488
a(S'fireplac'
p489
F0.84615384615384615
tp490
a(S'meek'
p491
F0.84615384615384615
tp492
a(S'ferrel'
p493
F0.84347826086956523
tp494
a(S'orlean'
p495
F0.84210526315789469
tp496
a(S'don'
p497
F0.83606557377049184
tp498
a(S'tweetlikeagiri'
p499
F0.83333333333333337
tp500
a(S'backstreet'
p501
F0.83333333333333337
tp502
a(S'nam'
p503
F0.83333333333333337
tp504
a(S'marsh'
p505
F0.83333333333333337
tp506
a(S'sheehey'
p507
F0.82608695652173914
tp508
a(S'creek'
p509
F0.82352941176470584
tp510
a(S'dicki'
p511
F0.82352941176470584
tp512
a(S'marbl'
p513
F0.82352941176470584
tp514
a(S'foul'
p515
F0.81818181818181823
tp516
a(S'okayi'
p517
F0.81818181818181823
tp518
a(S'addi'
p519
F0.81818181818181823
tp520
a(S'sportscent'
p521
F0.81818181818181823
tp522
a(S'dane'
p523
F0.81818181818181823
tp524
a(S'sorrow'
p525
F0.81818181818181823
tp526
a(S'aldean'
p527
F0.8125
tp528
a(S'gunna'
p529
F0.80487804878048785
tp530
a(S'undef'
p531
F0.80000000000000004
tp532
a(S'mason'
p533
F0.80000000000000004
tp534
a(S'eastern'
p535
F0.80000000000000004
tp536
a(S'shmack'
p537
F0.80000000000000004
tp538
a(S'poetic'
p539
F0.80000000000000004
tp540
a(S'cleveland'
p541
F0.80000000000000004
tp542
a(S'einstein'
p543
F0.80000000000000004
tp544
a(S'shaun'
p545
F0.80000000000000004
tp546
a(S'bub'
p547
F0.80000000000000004
tp548
a(S'assist'
p549
F0.79411764705882348
tp550
a(S'elli'
p551
F0.78723404255319152
tp552
a(S'derek'
p553
F0.78688524590163933
tp554
a(S'nhl'
p555
F0.7857142857142857
tp556
a(S'yr'
p557
F0.7857142857142857
tp558
a(S'baller'
p559
F0.7857142857142857
tp560
a(S'guard'
p561
F0.78205128205128205
tp562
a(S'madden'
p563
F0.77777777777777779
tp564
a(S'oregon'
p565
F0.77777777777777779
tp566
a(S'mackey'
p567
F0.77777777777777779
tp568
a(S'zach'
p569
F0.77272727272727271
tp570
a(S'grizzli'
p571
F0.76923076923076927
tp572
a(S'ross'
p573
F0.76923076923076927
tp574
a(S'brooklyn'
p575
F0.76923076923076927
tp576
a(S'dakota'
p577
F0.76923076923076927
tp578
a(S'pup'
p579
F0.76666666666666672
tp580
a(S'tweeter'
p581
F0.76470588235294112
tp582
a(S'peter'
p583
F0.75438596491228072
tp584
a(S'bench'
p585
F0.75324675324675328
tp586
a(S'slipper'
p587
F0.75
tp588
a(S'appetit'
p589
F0.75
tp590
a(S'gray'
p591
F0.75
tp592
a(S'dib'
p593
F0.75
tp594
a(S'pickup'
p595
F0.75
tp596
a(S'softbal'
p597
F0.75
tp598
a(S'throwin'
p599
F0.75
tp600
a(S'cbs'
p601
F0.75
tp602
a(S'deed'
p603
F0.75
tp604
a(S'villa'
p605
F0.75
tp606
a(S'harbaugh'
p607
F0.75
tp608
a(S'thou'
p609
F0.75
tp610
a(S'cozi'
p611
F0.75
tp612
a(S'chosen'
p613
F0.75
tp614
a(S'uhhhh'
p615
F0.75
tp616
a(S'of'
p617
F0.74871794871794872
tp618
a(S'gameday'
p619
F0.7407407407407407
tp620
a(S'chant'
p621
F0.73999999999999999
tp622
a(S'hum'
p623
F0.73684210526315785
tp624
a(S'ius'
p625
F0.734375
tp626
a(S'chaser'
p627
F0.73333333333333328
tp628
a(S'youth'
p629
F0.73333333333333328
tp630
a(S'uhm'
p631
F0.73333333333333328
tp632
a(S'carol'
p633
F0.73333333333333328
tp634
a(S'templ'
p635
F0.73333333333333328
tp636
a(S'autograph'
p637
F0.73333333333333328
tp638
a(S'jacob'
p639
F0.73076923076923073
tp640
a(S'aap'
p641
F0.72972972972972971
tp642
a(S'kingdom'
p643
F0.72727272727272729
tp644
a(S'dime'
p645
F0.72727272727272729
tp646
a(S'roadhous'
p647
F0.72727272727272729
tp648
a(S'georgetown'
p649
F0.72727272727272729
tp650
a(S'evid'
p651
F0.72727272727272729
tp652
a(S'dent'
p653
F0.72727272727272729
tp654
a(S'steeler'
p655
F0.72727272727272729
tp656
a(S'mich'
p657
F0.72727272727272729
tp658
a(S'boxer'
p659
F0.72727272727272729
tp660
a(S'hah'
p661
F0.72413793103448276
tp662
a(S'yogi'
p663
F0.72289156626506024
tp664
a(S'volleybal'
p665
F0.72222222222222221
tp666
a(S'lead'
p667
F0.72058823529411764
tp668
a(S'survey'
p669
F0.71875
tp670
a(S'johnson'
p671
F0.71698113207547165
tp672
a(S'ali'
p673
F0.7142857142857143
tp674
a(S'hahahahha'
p675
F0.7142857142857143
tp676
a(S'hobo'
p677
F0.7142857142857143
tp678
a(S'capabl'
p679
F0.7142857142857143
tp680
a(S'noah'
p681
F0.7142857142857143
tp682
a(S'ivi'
p683
F0.7142857142857143
tp684
a(S'divis'
p685
F0.7142857142857143
tp686
a(S'dunk'
p687
F0.7142857142857143
tp688
a(S'stripe'
p689
F0.7142857142857143
tp690
a(S'presh'
p691
F0.7142857142857143
tp692
a(S'replay'
p693
F0.7142857142857143
tp694
a(S'lineup'
p695
F0.70967741935483875
tp696
a(S'melo'
p697
F0.70833333333333337
tp698
a(S'ncaa'
p699
F0.70588235294117652
tp700
a(S'jeff'
p701
F0.70588235294117652
tp702
a(S'jordi'
p703
F0.7021276595744681
tp704
a(S'robinson'
p705
F0.69999999999999996
tp706
a(S'squad'
p707
F0.69999999999999996
tp708
a(S'crimson'
p709
F0.69999999999999996
tp710
a(S'speechless'
p711
F0.69999999999999996
tp712
a(S'injuri'
p713
F0.69696969696969702
tp714
a(S'offens'
p715
F0.69607843137254899
tp716
a(S'cheesecak'
p717
F0.69565217391304346
tp718
a(S'vick'
p719
F0.69565217391304346
tp720
a(S'immatur'
p721
F0.69565217391304346
tp722
a(S'indiana'
p723
F0.69493844049247611
tp724
a(S'qdoba'
p725
F0.69444444444444442
tp726
a(S'howard'
p727
F0.69444444444444442
tp728
a(S'rocki'
p729
F0.69387755102040816
tp730
a(S'summertim'
p731
F0.69230769230769229
tp732
a(S'restroom'
p733
F0.69230769230769229
tp734
a(S'byrd'
p735
F0.69230769230769229
tp736
a(S'rear'
p737
F0.69230769230769229
tp738
a(S'australia'
p739
F0.69230769230769229
tp740
a(S'rivalri'
p741
F0.69230769230769229
tp742
a(S'curti'
p743
F0.69230769230769229
tp744
a(S'nativ'
p745
F0.69230769230769229
tp746
a(S'amp'
p747
F0.69115442278860573
tp748
a(S'eight'
p749
F0.69090909090909092
tp750
a(S'halftim'
p751
F0.69047619047619047
tp752
a(S'beth'
p753
F0.68965517241379315
tp754
a(S'field'
p755
F0.68965517241379315
tp756
a(S'tinder'
p757
F0.6875
tp758
a(S'cincinnati'
p759
F0.6875
tp760
a(S'applaus'
p761
F0.6875
tp762
a(S'jenna'
p763
F0.6875
tp764
a(S'eww'
p765
F0.6875
tp766
a(S'bryant'
p767
F0.6875
tp768
a(S'spank'
p769
F0.6875
tp770
a(S'lololol'
p771
F0.68656716417910446
tp772
a(S'romo'
p773
F0.68571428571428572
tp774
a(S'morgan'
p775
F0.68421052631578949
tp776
a(S'scheme'
p777
F0.68421052631578949
tp778
a(S'blair'
p779
F0.68421052631578949
tp780
a(S'calvin'
p781
F0.68421052631578949
tp782
a(S'knit'
p783
F0.68181818181818177
tp784
a(S'rang'
p785
F0.68181818181818177
tp786
a(S'bsu'
p787
F0.68181818181818177
tp788
a(S'matchup'
p789
F0.68181818181818177
tp790
a(S'william'
p791
F0.68181818181818177
tp792
a(S'blink'
p793
F0.68181818181818177
tp794
a(S'michigan'
p795
F0.68075117370892024
tp796
a(S'basket'
p797
F0.68000000000000005
tp798
a(S'panera'
p799
F0.68000000000000005
tp800
a(S'loung'
p801
F0.67924528301886788
tp802
aa.