(lp1
(lp2
(S'doing'
p3
S'noshave'
p4
S'november'
p5
tp6
a(S'forwards'
p7
S'to'
p8
S'harrys'
p9
tp10
a(S'a'
S'jger'
p11
S'bomb'
p12
tp13
a(S'front'
p14
S'row'
p15
S'seat'
p16
tp17
a(S'my'
p18
S'art'
p19
S'instructor'
p20
tp21
a(S'purify'
p22
S'me'
p23
S'purify'
p24
tp25
a(S''
S'total'
p26
S'tds'
p27
tp28
a(S'works'
p29
S'itself'
p30
S'out'
p31
tp32
a(S'tests'
p33
S'on'
p34
S'tests'
p35
tp36
a(S'my'
p37
S'main'
p38
S'biddie'
p39
tp40
a(S'words'
p41
S'cannot'
p42
S'express'
p43
tp44
a(S'talk'
p45
S'about'
p46
S'thermodynamics'
p47
tp48
a(S'christie'
p49
S'and'
p50
S'dani'
p51
tp52
a(S'san'
p53
S'jose'
p54
S'ca'
p55
tp56
a(S'chocolate'
p57
S'covered'
p58
S'cherries'
p59
tp60
a(S'mini'
p61
S'panic'
p62
S'attack'
p63
tp64
a(S'hate'
p65
S'us'
p66
S'cus'
p67
tp68
a(S'to'
p69
S'trinidad'
p70
S'jame'
p71
tp72
a(S'grandma'
p73
S'who'
p74
S'passed'
p75
tp76
a(S'wearing'
p77
S'shorts'
p78
S'yesterday'
p79
tp80
a(S'pile'
p81
S'of'
p82
S'presents'
p83
tp84
a(S'rt'
p85
S'signed'
p86
S'anonymous'
p87
tp88
a(S'lavonne'
p89
S'amp'
p90
S'andre'
p91
tp92
a(S'an'
p93
S'absurd'
p94
S'amount'
p95
tp96
a(S'dum'
p97
S'dum'
p98
S'dum'
p99
tp100
a(S'fell'
p101
S'asleep'
p102
S'before'
p103
tp104
a(S'coming'
p105
S'zombie'
p106
S'apocalypse'
p107
tp108
a(S'barack'
p109
S'hussein'
p110
S'obama'
p111
tp112
a(S'figure'
p113
S'gettin'
p114
S'figures'
p115
tp116
a(S'phase'
p117
S'vsimon'
p118
S'tower'
p119
tp120
a(S'my'
p121
S'literary'
p122
S'interpretation'
p123
tp124
a(S'gamma'
p125
S'nu'
p126
S'chapter'
p127
tp128
a(S'deserves'
p129
S'somebody'
p130
S'who'
p131
tp132
a(S'dmbs'
p133
S'away'
p134
S'from'
p135
tp136
a(S'monster'
p137
S'pit'
p138
S'd'
tp139
a(S'revenge'
p140
S'revenge'
p141
S'revenge'
p142
tp143
a(S'nope'
p144
S'nope'
p145
S'nope'
p146
tp147
a(S'sign'
p148
S'da'
p149
S'damn'
p150
tp151
a(S'patty'
p152
S'crabby'
p153
S'patty'
p154
tp155
a(S'york'
p156
S'stock'
p157
S'exchange'
p158
tp159
a(S'tum'
p160
S'tum'
p161
S'hurts'
p162
tp163
a(S'won'
p164
S'the'
p165
S'wiki'
p166
tp167
a(S'sweet'
p168
S'potato'
p169
S'fries'
p170
tp171
a(S'bad'
p172
S'bitch'
p173
S'contest'
p174
tp175
a(S'a'
S'prayer'
p176
S'circle'
p177
tp178
a(S'snow'
p179
S'snow'
p180
S'snow'
p181
tp182
a(S'seat'
p183
S'belt'
p184
S'tickets'
p185
tp186
a(S'shut'
p187
S'yo'
p188
S'mouth'
p189
tp190
a(S'kim'
p191
S'kardashian'
p192
S'and'
p193
tp194
a(S'my'
p195
S'sincerest'
p196
S'apologies'
p197
tp198
a(S'rt'
p199
S'emma'
p200
S'watson'
p201
tp202
a(S'and'
p203
S'brad'
p204
S'stevens'
p205
tp206
a(S'brady'
p207
S'patriots'
p208
S'brady'
p209
tp210
a(S'happy'
p211
S'birthday'
p212
S'naya'
p213
tp214
a(S'james'
p215
S'franco'
p216
S'apologizes'
p217
tp218
a(S'wayyy'
p219
S'too'
p220
S'long'
p221
tp222
a(S'stay'
p223
S'classy'
p224
S'twitter'
p225
tp226
a(S'atoms'
p227
S'for'
p228
S'peace'
p229
tp230
a(S'bored'
p231
S'we'
p232
S'coulda'
p233
tp234
a(S'norts'
p235
S'and'
p236
S'loafers'
p237
tp238
a(S'j'
S'cole'
p239
S'or'
p240
tp241
a(S'the'
p242
S'weeping'
p243
S'angels'
p244
tp245
a(S'finite'
p246
S'finite'
p247
S'finite'
p248
tp249
a(S'bathroom'
p250
S'without'
p251
S'washing'
p252
tp253
a(S'heaven'
p254
S'andre'
p255
S'amp'
p256
tp257
a(S'does'
p258
S'gayyyyyyyyyy'
p259
S'coincidence'
p260
tp261
a(S'how'
p262
S'many'
p263
S'efforts'
p264
tp265
a(S'red'
p266
S'light'
p267
S'put'
p268
tp269
a(S'st'
p270
S'louis'
p271
S'chicago'
p272
tp273
a(S'a'
S'cotton'
p274
S'headed'
p275
tp276
a(S'i'
S'burped'
p277
S'hiccuped'
p278
tp279
a(S'nyquil'
p280
S'and'
p281
S'tylonel'
p282
tp283
a(S'black'
p284
S'jesus'
p285
S'amen'
p286
tp287
a(S'makin'
p288
S'me'
p289
S'blush'
p290
tp291
a(S'fairly'
p292
S'odd'
p293
S'parents'
p294
tp295
a(S'few'
p296
S'weeks'
p297
S'ago'
p298
tp299
a(S'debbie'
p300
S'downer'
p301
S''
tp302
a(S'charlie'
p303
S'st'
p304
S'cloud'
p305
tp306
a(S'your'
p307
S'birth'
p308
S'certificate'
p309
tp310
a(S'yardsgame'
p311
S''
g26
tp312
a(S'very'
p313
S'rarely'
p314
S'drink'
p315
tp316
a(S'ellie'
p317
S'goulding'
p318
S'in'
p319
tp320
a(S'nashville'
p321
S'on'
p322
S'mar'
p323
tp324
a(S'march'
p325
S'march'
p326
S'march'
p327
tp328
a(S'make'
p329
S'eye'
p330
S'contact'
p331
tp332
a(S'brave'
p333
S'little'
p334
S'toaster'
p335
tp336
a(S'grey'
p337
S'goose'
p338
S'is'
p339
tp340
a(S'gregg'
p341
S'or'
p342
S'nate'
p343
tp344
a(S'merry'
p345
S'christmas'
p346
S'eve'
p347
tp348
a(S'national'
p349
S'record'
p350
S'store'
p351
tp352
a(S'without'
p353
S'pizza'
p354
S'x'
tp355
a(S'cry'
p356
S'real'
p357
S'flowing'
p358
tp359
a(g118
g119
S'thanks'
p360
tp361
a(S'water'
p362
S'long'
p363
S'islands'
p364
tp365
a(S'lafayette'
p366
S'smells'
p367
S'like'
p368
tp369
a(S'harry'
p370
S'potter'
p371
S'turns'
p372
tp373
a(S'pros'
p374
S'and'
p375
S'cons'
p376
tp377
a(S'on'
p378
S'donnie'
p379
S'yen'
p380
tp381
a(S'january'
p382
S'or'
p383
S'february'
p384
tp385
a(S''
S'amc'
p386
S'showplace'
p387
tp388
a(S'read'
p389
S'an'
p390
S'article'
p391
tp392
a(S'struck'
p393
S'by'
p394
S'lightning'
p395
tp396
a(S'a'
S'glorious'
p397
S'occasion'
p398
tp399
a(S'chris'
p400
S'traeger'
p401
S'voice'
p402
tp403
a(S'its'
p404
S'common'
p405
S'sense'
p406
tp407
a(S'community'
p408
S'service'
p409
S'at'
p410
tp411
a(S'hate'
p412
S'notre'
p413
S'dame'
p414
tp415
a(S'new'
p416
S'scavenger'
p417
S'hunt'
p418
tp419
a(S'foods'
p420
S'moes'
p421
S'is'
p422
tp423
a(S'water'
p424
S'bottle'
p425
S'full'
p426
tp427
a(S''
S'diced'
p428
S'pineapples'
p429
tp430
a(S'fuck'
p431
S'don'
p432
S'bosco'
p433
tp434
a(S'paul'
p435
S'brown'
p436
S'stadium'
p437
tp438
a(S'stage'
p439
S'at'
p440
S'seekers'
p441
tp442
a(S'eaten'
p443
S'fast'
p444
S'food'
p445
tp446
a(S'happy'
p447
S'belated'
p448
S'bday'
p449
tp450
a(S'eggs'
p451
S'and'
p452
S'bacon'
p453
tp454
a(S'my'
p455
S'financial'
p456
S'aid'
p457
tp458
a(S's'
S'jam'
p459
S'party'
p460
tp461
a(S'marijuana'
p462
S'is'
p463
S'legal'
p464
tp465
a(S'ladies'
p466
S'and'
p467
S'gents'
p468
tp469
a(S'cine'
p470
S'fatou'
p471
S'cine'
p472
tp473
a(S'bin'
p474
S'laden'
p475
S'is'
p476
tp477
a(S'balqiis'
p478
S'rt'
p479
S'kidrauhlifa'
p480
tp481
a(S'an'
p482
S'unlimited'
p483
S'supply'
p484
tp485
a(S'dark'
p486
S'twisted'
p487
S'fantasy'
p488
tp489
a(S'cranberry'
p490
S'bliss'
p491
S'bar'
p492
tp493
a(S'at'
p494
S'phi'
p495
S'tau'
p496
tp497
a(S'where'
p498
S'mine'
p499
S'belong'
p500
tp501
a(S'werent'
p502
S'even'
p503
S'supposed'
p504
tp505
a(S'goodnight'
p506
S'everyone'
p507
S'sweet'
p508
tp509
a(S'walking'
p510
S'around'
p511
S'naked'
p512
tp513
a(S'justin'
p514
S'feels'
p515
S'oop'
p516
tp517
a(S'john'
p518
S'silvers'
p519
S'and'
p520
tp521
a(S'pretty'
p522
S'darkhaired'
p523
S'women'
p524
tp525
a(S'a'
S'mute'
p526
S'button'
p527
tp528
a(g255
g256
S'lavonne'
p529
tp530
a(S'suck'
p531
S'justins'
p532
S'dick'
p533
tp534
a(S'says'
p535
S'free'
p536
S'hugs'
p537
tp538
a(S'eating'
p539
S'taco'
p540
S'bell'
p541
tp542
a(S'tell'
p543
S'us'
p544
S'dragons'
p545
tp546
a(S'damn'
p547
S'porch'
p548
S'lights'
p549
tp550
a(S'have'
p551
S'assigned'
p552
S'seats'
p553
tp554
a(S'avoidance'
p555
S'is'
p556
S'confirmation'
p557
tp558
a(S'the'
p559
S'gunpowder'
p560
S'treason'
p561
tp562
a(S'smoking'
p563
S'a'
S'cig'
p564
tp565
a(S''
S'connie'
p566
S'foley'
p567
tp568
a(S'gets'
p569
S'free'
p570
S'booze'
p571
tp572
a(S'milk'
p573
S'chocolate'
p574
S'or'
p575
tp576
a(S'cannot'
p577
S'stay'
p578
S'awake'
p579
tp580
a(S'sunny'
p581
S'in'
p582
S'philadelphia'
p583
tp584
a(S'lace'
p585
S'cabaret'
p586
S'at'
p587
tp588
a(S'excessive'
p589
S'amount'
p590
S'of'
p591
tp592
a(S'intimidated'
p593
S'by'
p594
S'angela'
p595
tp596
a(S'beautiful'
p597
g486
g487
tp598
a(S'n'
S'shake'
p599
S'makes'
p600
tp601
a(S'nvr'
p602
S'kno'
p603
S'how'
p604
tp605
a(S'soren'
p606
S'soren'
p607
S'soren'
p608
tp609
a(S'kids'
p610
S'hide'
p611
S'yo'
p612
tp613
a(S'in'
p614
S'heaven'
p615
g89
tp616
a(S'yo'
p617
g610
g611
tp618
a(S'n'
S'college'
p619
S'ave'
p620
tp621
a(S'watching'
p622
S'breaking'
p623
S'dawn'
p624
tp625
a(S'bu'
p626
S'bu'
p627
S'bu'
p628
tp629
a(S'y'
S'r'
S'u'
tp630
a(S'mindy'
p631
S'kalings'
p632
S'book'
p633
tp634
a(S'osama'
p635
g474
g475
tp636
a(S'wtf'
p637
S'ru'
p638
S'doing'
p639
tp640
a(S'kill'
p641
S'big'
p642
S'sean'
p643
tp644
a(S'ordained'
p645
S'to'
p646
S'worship'
p647
tp648
a(S'abraham'
p649
S'lincoln'
p650
S'vampire'
p651
tp652
a(S'she'
p653
S'real'
p654
S'greedy'
p655
tp656
a(S'slacker'
p657
S'radio'
p658
S'at'
p659
tp660
a(S'a'
S'horse'
p661
S'mask'
p662
tp663
a(S'falling'
p664
S'into'
p665
S'place'
p666
tp667
a(S'a'
S'bubble'
p668
S'bath'
p669
tp670
a(S'espn'
p671
S'gameday'
p672
S'assembly'
p673
tp674
a(S'shower'
p675
S'without'
p676
S'shoes'
p677
tp678
a(S'prayer'
p679
S'circle'
p680
S'for'
p681
tp682
a(S'dumbest'
p683
S'movie'
p684
S'ive'
p685
tp686
a(S'monsters'
p687
S'inc'
p688
S'd'
tp689
a(S'lmfao'
p690
S'brb'
p691
S'dying'
p692
tp693
a(S'are'
p694
S'terminal'
p695
S'kids'
p696
tp697
a(S'slices'
p698
S'of'
p699
S'pizza'
p700
tp701
a(S'big'
p702
S'booty'
p703
S'ho'
p704
tp705
a(S'ltltltcheck'
p706
S'the'
p707
S'avi'
p708
tp709
a(S'chief'
p710
S'keef'
p711
S'in'
p712
tp713
a(S'act'
p714
S'brand'
p715
S'new'
p716
tp717
a(S'halle'
p718
S'berry'
p719
S'or'
p720
tp721
a(S'drops'
p722
S'mic'
p723
S'shrugs'
p724
tp725
a(S'long'
p726
S'island'
p727
S'medium'
p728
tp729
a(S'obsessed'
p730
S'with'
p731
S'childish'
p732
tp733
a(S'behind'
p734
S'an'
p735
S'anon'
p736
tp737
a(S'ryan'
p738
S'gosling'
p739
S'is'
p740
tp741
a(S'wut'
p742
S'up'
p743
S'wit'
p744
tp745
a(S'crush'
p746
g378
g379
tp747
a(S'om'
p748
S'nom'
p749
S'nom'
p750
tp751
a(S'lung'
p752
S'infection'
p753
S'and'
p754
tp755
a(S'patriots'
p756
g207
g208
tp757
a(S'red'
p758
S'stripe'
p759
S'out'
p760
tp761
a(S'american'
p762
S'horror'
p763
S'stories'
p764
tp765
a(S'biggest'
p766
S'pet'
p767
S'peeves'
p768
tp769
a(S'rae'
p770
S'jepsen'
p771
S''
tp772
a(S'lil'
p773
S'plot'
p774
S'twists'
p775
tp776
a(S'unhealthy'
p777
S'obsession'
p778
S'with'
p779
tp780
a(S'plz'
p781
S'plz'
p782
S'beliebers'
p783
tp784
a(S'slunt'
p785
S'ass'
p786
S'ho'
p787
tp788
a(S''
S'chaze'
p789
S'simplyyty'
p790
tp791
a(S''
S'verified'
p792
S'accounts'
p793
tp794
a(S'my'
p795
S'bane'
p796
S'costume'
p797
tp798
a(S'guest'
p799
S'speaker'
p800
S'today'
p801
tp802
a(S'dose'
p803
S'of'
p804
S'medicine'
p805
tp806
a(g566
g567
S'i'
tp807
a(g122
g123
S'class'
p808
tp809
a(S'k'
S'o'
S'k'
tp810
a(S'heavy'
p811
S'metal'
p812
S'lover'
p813
tp814
a(S'abroad'
p815
S'in'
p816
S'florence'
p817
tp818
a(S'drank'
p819
S'drank'
p820
S'drank'
p821
tp822
a(S'harry'
p823
S'potter'
p824
S'world'
p825
tp826
a(S'homeless'
p827
S'santa'
p828
S'claus'
p829
tp830
a(S'at'
p831
S'la'
p832
S'cha'
p833
tp834
a(S'burnt'
p835
S'my'
p836
S'tongue'
p837
tp838
a(S'home'
p839
S'cooked'
p840
S'meal'
p841
tp842
a(S'happy'
p843
S'founders'
p844
S'day'
p845
tp846
a(S'head'
p847
S'right'
p848
S'tynasty'
p849
tp850
a(S'billion'
p851
S'times'
p852
S'better'
p853
tp854
a(S'emotional'
p855
S'roller'
p856
S'coaster'
p857
tp858
a(S'a'
S'blueberry'
p859
S'bagel'
p860
tp861
a(S'toris'
p862
S'older'
p863
S'brother'
p864
tp865
a(S'hilary'
p866
S'duff'
p867
S'was'
p868
tp869
a(S'everybody'
p870
g129
g130
tp871
a(S'miami'
p872
S'in'
p873
S'june'
p874
tp875
a(S'has'
p876
S'entered'
p877
S'into'
p878
tp879
a(S'ellie'
p880
S'gouldings'
p881
S'newest'
p882
tp883
a(S'riley'
p884
S'hospital'
p885
g117
tp886
a(S'the'
p887
S'rolling'
p888
S'stones'
p889
tp890
a(S'copies'
p891
S'of'
p892
S'warrior'
p893
tp894
a(S'church'
p895
S'say'
p896
S'amen'
p897
tp898
a(S'raymond'
p899
S'allgood'
p900
S'likes'
p901
tp902
a(S'the'
p903
S'mass'
p904
S'defective'
p905
tp906
a(S'taco'
p907
S'bell'
p908
S'why'
p909
tp910
a(S'precious'
p911
S'im'
p912
S'hongry'
p913
tp914
a(S'hair'
p915
S'appointment'
p916
S'w'
tp917
a(S'to'
p918
S'el'
p919
S'compadre'
p920
tp921
a(S'justin'
p922
S'biebers'
p923
S'dick'
p924
tp925
a(S'wisdom'
p926
S'teeth'
p927
S'taken'
p928
tp929
a(g603
g604
S'muchwat'
p930
tp931
a(g885
g117
g118
tp932
a(S'my'
p933
g799
g800
tp934
a(S'my'
p935
S'booty'
p936
S'rubbed'
p937
tp938
a(S'boat'
p939
S'is'
p940
S'sinking'
p941
tp942
a(S'idgaf'
p943
S'what'
p944
S'anyone'
p945
tp946
a(S'counts'
p947
S'in'
p948
S'ot'
p949
tp950
a(S'emotional'
p951
S'drama'
p952
S'queen'
p953
tp954
a(S'to'
p955
S'popular'
p956
S'belief'
p957
tp958
a(S'online'
p959
S'subway'
p960
S'training'
p961
tp962
a(S'st'
p963
S'louis'
p964
S'show'
p965
tp966
a(S'some'
p967
S'papa'
p968
S'johns'
p969
tp970
a(S'clique'
p971
S'remix'
p972
S'he'
p973
tp974
a(S'belly'
p975
S'button'
p976
S'ring'
p977
tp978
a(S'fist'
p979
S'fight'
p980
S'with'
p981
tp982
a(S'full'
p983
S'body'
p984
S'massage'
p985
tp986
a(S'from'
p987
S'les'
p988
S'mis'
p989
tp990
a(S'barnes'
p991
S'and'
p992
S'noble'
p993
tp994
a(S'husbands'
p995
S'of'
p996
S'hollywood'
p997
tp998
a(S'go'
p999
S'purp'
p1000
S'purp'
p1001
tp1002
a(g379
g380
S'and'
p1003
tp1004
a(S'in'
p1005
S'port'
p1006
S'huron'
p1007
tp1008
a(S'bud'
p1009
S'light'
p1010
S'right'
p1011
tp1012
a(S'pat'
p1013
S'mcafee'
p1014
S'fan'
p1015
tp1016
a(S'forever'
p1017
S'alone'
p1018
S'february'
p1019
tp1020
a(S'dressed'
p1021
S'as'
p1022
S'goku'
p1023
tp1024
a(S'jessie'
p1025
S'j'
S'is'
p1026
tp1027
a(S'layer'
p1028
S'of'
p1029
S'skin'
p1030
tp1031
a(S'spreading'
p1032
S'christmas'
p1033
S'cheer'
p1034
tp1035
a(S'of'
p1036
S'delta'
p1037
S'sigma'
p1038
tp1039
a(S'my'
p1040
S'role'
p1041
S'model'
p1042
tp1043
a(S'if'
p1044
S'notre'
p1045
S'dame'
p1046
tp1047
a(S'an'
p1048
S'active'
p1049
S'volcano'
p1050
tp1051
a(S'caramel'
p1052
S'baileys'
p1053
S'and'
p1054
tp1055
a(S'i'
S'illegally'
p1056
S'downloaded'
p1057
tp1058
a(S'damn'
p1059
S'nerves'
p1060
S'sometimes'
p1061
tp1062
a(S'w'
S'h'
S'o'
tp1063
a(S'new'
p1064
g156
g157
tp1065
a(S'noodles'
p1066
S'amp'
p1067
S'co'
p1068
tp1069
a(S'ugly'
p1070
S'ugly'
p1071
S'ugly'
p1072
tp1073
a(S'actions'
p1074
S'speak'
p1075
S'louder'
p1076
tp1077
a(S'and'
p1078
S'catchers'
p1079
S'report'
p1080
tp1081
a(S'new'
p1082
S'profile'
p1083
S'pic'
p1084
tp1085
a(S'a'
S'pig'
p1086
S'hearttrifflin'
p1087
tp1088
a(S't'
S'o'
S'p'
tp1089
a(S'sinking'
p1090
S'this'
p1091
S'ship'
p1092
tp1093
a(S'that'
p1094
S'cash'
p1095
S'flow'
p1096
tp1097
a(S'words'
p1098
S'of'
p1099
S'encouragement'
p1100
tp1101
a(S'born'
p1102
S'brave'
p1103
S'bus'
p1104
tp1105
a(S'whole'
p1106
S'nother'
p1107
S'level'
p1108
tp1109
a(S'my'
p1110
S'sigma'
p1111
S'phi'
p1112
tp1113
a(S'the'
p1114
S'health'
p1115
S'clinic'
p1116
tp1117
a(S'with'
p1118
S'momma'
p1119
S'bear'
p1120
tp1121
a(S'the'
p1122
S'snooze'
p1123
S'button'
p1124
tp1125
a(S'from'
p1126
S'catfish'
p1127
S'steal'
p1128
tp1129
a(S'watch'
p1130
S'youtube'
p1131
S'videos'
p1132
tp1133
a(S'mamaw'
p1134
S'and'
p1135
S'papaws'
p1136
tp1137
a(S'ow'
p1138
S'ow'
p1139
S''
tp1140
a(S'understood'
p1141
S'the'
p1142
S'concept'
p1143
tp1144
a(S'ru'
p1145
S'ru'
p1146
S'ru'
p1147
tp1148
a(S''
S'bill'
p1149
S'cosby'
p1150
tp1151
a(S'videos'
p1152
S'playlist'
p1153
S'via'
p1154
tp1155
a(S'work'
p1156
S'pays'
p1157
S'off'
p1158
tp1159
a(S'at'
p1160
S'kates'
p1161
S'house'
p1162
tp1163
a(S'scream'
p1164
S'amp'
p1165
S'shout'
p1166
tp1167
a(S'for'
p1168
S'django'
p1169
S'unchained'
p1170
tp1171
a(S'alligators'
p1172
S'gonna'
p1173
S'alligate'
p1174
tp1175
a(S'keeps'
p1176
S'getting'
p1177
S'worse'
p1178
tp1179
a(S'john'
p1180
S'legend'
p1181
S'john'
p1182
tp1183
a(S'to'
p1184
S'buffa'
p1185
S'louies'
p1186
tp1187
a(S'groups'
p1188
S'candy'
p1189
S'candy'
p1190
tp1191
a(S'wisdom'
p1192
S'teeth'
p1193
S'are'
p1194
tp1195
a(S'twerk'
p1196
S'twerk'
p1197
S'twerk'
p1198
tp1199
a(g224
g225
S'followers'
p1200
tp1201
a(S'years'
p1202
S'eve'
p1203
S'plans'
p1204
tp1205
a(g672
g673
S'hall'
p1206
tp1207
a(g615
g89
g90
tp1208
a(S'diamonds'
p1209
S'on'
p1210
S'muh'
p1211
tp1212
a(S'assembly'
p1213
S'hall'
p1214
S'tonight'
p1215
tp1216
a(S'aw'
p1217
S'hell'
p1218
S'naw'
p1219
tp1220
a(S'calling'
p1221
S'the'
p1222
S'kettle'
p1223
tp1224
a(S'fag'
p1225
S'fag'
p1226
S'fag'
p1227
tp1228
a(S'virginia'
p1229
S'tech'
p1230
S'the'
p1231
tp1232
a(S'aware'
p1233
S'we'
p1234
g502
tp1235
a(S'lion'
p1236
S'king'
p1237
S'shirt'
p1238
tp1239
a(S'purse'
p1240
S'city'
p1241
S'bitch'
p1242
tp1243
a(S'an'
p1244
S'anxiety'
p1245
S'attack'
p1246
tp1247
a(S'one'
p1248
S'warm'
p1249
S'coat'
p1250
tp1251
a(S'new'
p1252
S'pet'
p1253
S'turtle'
p1254
tp1255
a(S'connected'
p1256
S'wikipedia'
p1257
S'articles'
p1258
tp1259
a(S'boats'
p1260
S'amp'
p1261
S'hoes'
p1262
tp1263
a(S'preach'
p1264
S'it'
p1265
S'sista'
p1266
tp1267
a(S'meet'
p1268
S'vip'
p1269
S'tix'
p1270
tp1271
a(g1127
g1128
S'their'
p1272
tp1273
a(S'jazzyjeffb'
p1274
S'le'
p1275
S'bain'
p1276
tp1277
a(S'whoa'
p1278
S'whoa'
p1279
S'whoa'
p1280
tp1281
a(S'indiana'
p1282
S'university'
p1283
S'bloomington'
p1284
tp1285
a(S'knocked'
p1286
S'tf'
p1287
S'out'
p1288
tp1289
a(S'at'
p1290
S'sams'
p1291
S'club'
p1292
tp1293
a(S'essence'
p1294
S'dance'
p1295
S'team'
p1296
tp1297
a(S'fo'
p1298
S'real'
p1299
S'doe'
p1300
tp1301
a(S'signing'
p1302
S'a'
S'lease'
p1303
tp1304
a(S'sing'
p1305
S'summer'
p1306
S'shade'
p1307
tp1308
a(S'mittromney'
p1309
S'doesnt'
p1310
S'have'
p1311
tp1312
a(S'the'
p1313
S'pats'
p1314
S'secondary'
p1315
tp1316
a(S'tre'
p1317
S'melvin'
p1318
S'is'
p1319
tp1320
a(g658
g659
S'sxsw'
p1321
tp1322
a(S'pizza'
p1323
S'face'
p1324
S'lookin'
p1325
tp1326
a(S'almost'
p1327
S'mind'
p1328
S'blowing'
p1329
tp1330
a(S'wear'
p1331
S'your'
p1332
S'candystripes'
p1333
tp1334
a(S'the'
p1335
S'kittys'
p1336
S'titties'
p1337
tp1338
a(S'im'
p1339
S'thoroughly'
p1340
S'convinced'
p1341
tp1342
a(S'kid'
p1343
S'named'
p1344
S'cudi'
p1345
tp1346
a(S'anyone'
p1347
S'else'
p1348
S'noticed'
p1349
tp1350
a(S'my'
p1351
S'tire'
p1352
S'blew'
p1353
tp1354
a(S'lick'
p1355
S'it'
p1356
S'goood'
p1357
tp1358
a(S'wreck'
p1359
S'it'
p1360
S'ralph'
p1361
tp1362
a(S'real'
p1363
S'thoif'
p1364
S'youre'
p1365
tp1366
a(S'lol'
p1367
S'brittany'
p1368
S'wright'
p1369
tp1370
a(S'the'
p1371
S'btwball'
p1372
S'staff'
p1373
tp1374
a(S'be'
p1375
S'msft'
p1376
S'trynna'
p1377
tp1378
a(S'burlesque'
p1379
S'girls'
p1380
S'return'
p1381
tp1382
a(S'are'
p1383
S'little'
p1384
S'fuckheads'
p1385
tp1386
a(S'amazing'
p1387
S'heart'
p1388
S'wrenchinguncompromising'
p1389
tp1390
a(S'reading'
p1391
S'an'
p1392
S'article'
p1393
tp1394
a(S'imrobgoddammit'
p1395
S'that'
p1396
S'moment'
p1397
tp1398
a(S'kehas'
p1399
S'new'
p1400
S'album'
p1401
tp1402
a(g1075
g1076
S'than'
p1403
tp1404
a(g719
g720
S'hallelujah'
p1405
tp1406
a(S'a'
S'polar'
p1407
S'pop'
p1408
tp1409
a(S'apples'
p1410
S'to'
p1411
S'apples'
p1412
tp1413
a(S'spree'
p1414
S'coming'
p1415
S'soon'
p1416
tp1417
a(g216
g217
S'to'
p1418
tp1419
a(g1038
S'theta'
p1420
S'sorority'
p1421
tp1422
a(g281
g282
S'pm'
p1423
tp1424
a(S'boiler'
p1425
S'up'
p1426
S'clap'
p1427
tp1428
a(g428
g429
S''
tp1429
a(S'horror'
p1430
S'story'
p1431
S'season'
p1432
tp1433
a(S'in'
p1434
S'rolling'
p1435
S'stone'
p1436
tp1437
a(S'black'
p1438
S'beliebers'
p1439
S'piss'
p1440
tp1441
a(S'for'
p1442
g657
g658
tp1443
a(S'monster'
p1444
S'follow'
p1445
S'back'
p1446
tp1447
a(S'summer'
p1448
S'reading'
p1449
S'project'
p1450
tp1451
a(S'some'
p1452
S'italian'
p1453
S'fiesta'
p1454
tp1455
a(S'a'
S'lyrical'
p1456
S'genius'
p1457
tp1458
a(S'iu'
p1459
S'tailgate'
p1460
S'besides'
p1461
tp1462
a(S'dogs'
p1463
S'info'
p1464
S'shes'
p1465
tp1466
a(S'drive'
p1467
S'stick'
p1468
S'shifts'
p1469
tp1470
a(S'belly'
p1471
S'button'
p1472
S'man'
p1473
tp1474
a(S'finite'
p1475
S'math'
p1476
S'final'
p1477
tp1478
a(S'busting'
p1479
S'it'
p1480
S'open'
p1481
tp1482
a(S'her'
p1483
S'label'
p1484
S'forced'
p1485
tp1486
a(S'phillip'
p1487
S'phillips'
p1488
S'new'
p1489
tp1490
a(S'shed'
p1491
S'the'
p1492
S'unwated'
p1493
tp1494
a(S'eye'
p1495
S'contact'
p1496
S'with'
p1497
tp1498
a(S'start'
p1499
S'lifting'
p1500
S'heavy'
p1501
tp1502
a(S'sink'
p1503
S'doesnt'
p1504
S'ship'
p1505
tp1506
a(S'banner'
p1507
S''
S'banner'
p1508
tp1509
a(S'actually'
p1510
S'cleaned'
p1511
S'call'
p1512
tp1513
a(S'the'
p1514
S'admissions'
p1515
S'office'
p1516
tp1517
a(S'purdue'
p1518
S'ga'
p1519
S'tickets'
p1520
tp1521
a(S'highest'
p1522
S'score'
p1523
S'on'
p1524
tp1525
a(S'key'
p1526
S'and'
p1527
S'peele'
p1528
tp1529
a(S'twitter'
p1530
S'archive'
p1531
S'button'
p1532
tp1533
a(S'sweet'
p1534
S'potatoe'
p1535
S'pie'
p1536
tp1537
a(S'nicki'
p1538
S'minaj'
p1539
S'is'
p1540
tp1541
a(S'haunted'
p1542
S'house'
p1543
S'tickets'
p1544
tp1545
a(S'definition'
p1546
S'of'
p1547
S'racist'
p1548
tp1549
a(S'meets'
p1550
S'world'
p1551
S'sequel'
p1552
tp1553
a(g464
S'in'
p1554
S'colorado'
p1555
tp1556
a(S'those'
p1557
S'affected'
p1558
S'by'
p1559
tp1560
a(S'caramel'
p1561
S'apple'
p1562
S'spice'
p1563
tp1564
a(S'roberto'
p1565
S'clemente'
p1566
S'i'
tp1567
a(g731
g732
S'gambino'
p1568
tp1569
a(g523
g524
S'and'
p1570
tp1571
a(S'pitchers'
p1572
g1078
g1079
tp1573
a(S'lil'
p1574
S'twustin'
p1575
S'clique'
p1576
tp1577
a(S'my'
p1578
S'daily'
p1579
S'stats'
p1580
tp1581
a(S'larry'
p1582
S'and'
p1583
S'linda'
p1584
tp1585
a(S'mumford'
p1586
S'and'
p1587
S'sons'
p1588
tp1589
a(S'the'
p1590
S'attendance'
p1591
S'sheet'
p1592
tp1593
a(S'wear'
p1594
S'yoga'
p1595
S'pants'
p1596
tp1597
a(S'could'
p1598
S'hardly'
p1599
S'walk'
p1600
tp1601
a(S'monster'
p1602
S'pit'
p1603
S'line'
p1604
tp1605
a(g440
g441
S'show'
p1606
tp1607
a(S'a'
g300
g301
tp1608
a(S'fresh'
p1609
S'hair'
p1610
S'cut'
p1611
tp1612
a(S'nicki'
p1613
S'minaj'
p1614
S'and'
p1615
tp1616
a(S'finite'
p1617
S'final'
p1618
S'exam'
p1619
tp1620
a(S'google'
p1621
S'image'
p1622
S'search'
p1623
tp1624
a(g1076
g1403
S'words'
p1625
tp1626
a(S'cabaret'
p1627
g1379
g1380
tp1628
a(S'skype'
p1629
S'dates'
p1630
S'with'
p1631
tp1632
a(S'im'
p1633
S'barely'
p1634
S'breathin'
p1635
tp1636
a(S'culture'
p1637
S'final'
p1638
S'exam'
p1639
tp1640
a(S'monster'
p1641
S'pit'
p1642
S'wristbands'
p1643
tp1644
a(S'moves'
p1645
S'to'
p1646
S'ultra'
p1647
tp1648
a(S'kehas'
p1649
S'die'
p1650
S'young'
p1651
tp1652
a(S'may'
p1653
S'feel'
p1654
S'overwhelmed'
p1655
tp1656
a(S'word'
p1657
S'moist'
p1658
S'why'
p1659
tp1660
a(S'broke'
p1661
S'the'
p1662
S'seal'
p1663
tp1664
a(S'gives'
p1665
S'me'
p1666
S'chills'
p1667
tp1668
a(S'du'
p1669
S'bum'
p1670
S'du'
p1671
tp1672
a(S'continues'
p1673
S'to'
p1674
S'climb'
p1675
tp1676
a(S'key'
p1677
S'amp'
p1678
S'peele'
p1679
tp1680
a(g1295
g1296
S'tryouts'
p1681
tp1682
a(S'in'
p1683
S'dunn'
p1684
S'meadow'
p1685
tp1686
a(S'eastern'
p1687
S'michigan'
p1688
S'haha'
p1689
tp1690
a(S'in'
p1691
S'west'
p1692
S'lafayette'
p1693
tp1694
a(S'rai'
p1695
S'isnt'
p1696
S'texting'
p1697
tp1698
a(S'o'
S'n'
S'e'
tp1699
a(S'port'
p1700
S'huron'
p1701
S'mi'
p1702
tp1703
a(S'v'
S'for'
p1704
S'vendetta'
p1705
tp1706
a(S'stomach'
p1707
S'is'
p1708
S'digesting'
p1709
tp1710
a(S'york'
p1711
S'in'
p1712
S'clinton'
p1713
tp1714
a(S'high'
p1715
S'school'
p1716
S'reunion'
p1717
tp1718
a(S'production'
p1719
S'of'
p1720
S'twinkies'
p1721
tp1722
a(S'the'
p1723
S'afc'
p1724
S'east'
p1725
tp1726
a(S'to'
p1727
S'los'
p1728
S'angeles'
p1729
tp1730
a(S'bitching'
p1731
S'and'
p1732
S'complaining'
p1733
tp1734
a(g732
g1568
S''
tp1735
a(S'wisdom'
p1736
S'teeth'
p1737
S'suck'
p1738
tp1739
a(S'slope'
p1740
S'is'
p1741
S'treacherous'
p1742
tp1743
a(S'shades'
p1744
S'of'
p1745
S'grey'
p1746
tp1747
a(S'cop'
p1748
S'that'
p1749
S'arrested'
p1750
tp1751
a(S'after'
p1752
S'tre'
p1753
S'leaves'
p1754
tp1755
a(S'figuring'
p1756
S'out'
p1757
S'which'
p1758
tp1759
a(S'next'
p1760
S'semesters'
p1761
S'classes'
p1762
tp1763
a(S'im'
p1764
S'leaning'
p1765
S'towards'
p1766
tp1767
a(S'pardon'
p1768
S'my'
p1769
S'french'
p1770
tp1771
a(S'your'
p1772
S'wisdom'
p1773
S'teeth'
p1774
tp1775
a(S'being'
p1776
S'delayed'
p1777
S'shipping'
p1778
tp1779
a(S'wide'
p1780
S'awake'
p1781
S'smh'
p1782
tp1783
a(S'paycheck'
p1784
S'than'
p1785
S'waiting'
p1786
tp1787
a(S'tornado'
p1788
S'warning'
p1789
S'at'
p1790
tp1791
a(S'national'
p1792
S'championship'
p1793
S'haha'
p1794
tp1795
a(S'type'
p1796
S'lebron'
p1797
S'james'
p1798
tp1799
a(S'smell'
p1800
S'like'
p1801
S'roses'
p1802
tp1803
a(S'wobble'
p1804
S'wobble'
p1805
S'wobble'
p1806
tp1807
a(S'past'
p1808
S'four'
p1809
S'hours'
p1810
tp1811
a(S'candidate'
p1812
S'who'
p1813
S'stands'
p1814
tp1815
a(S'young'
p1816
S'life'
p1817
S'placement'
p1818
tp1819
a(S'tommy'
p1820
S'lee'
p1821
S'jones'
p1822
tp1823
a(g1045
g1046
S'loses'
p1824
tp1825
a(S'latest'
p1826
S'single'
p1827
S'cmon'
p1828
tp1829
a(S'candle'
p1830
S'stick'
p1831
S'holder'
p1832
tp1833
a(S'playing'
p1834
S'taylor'
p1835
S'swift'
p1836
tp1837
a(S'lana'
p1838
S'del'
p1839
S'rey'
p1840
tp1841
a(S'one'
p1842
S'true'
p1843
S'pairing'
p1844
tp1845
a(g952
g953
S'ever'
p1846
tp1847
a(S'super'
p1848
S'bowl'
p1849
S'performance'
p1850
tp1851
a(S'dog'
p1852
S'related'
p1853
S'dog'
p1854
tp1855
a(S'its'
p1856
S'freezing'
p1857
S'tits'
p1858
tp1859
a(S'cats'
p1860
S'cats'
p1861
S'cats'
p1862
tp1863
a(S'of'
p1864
S'james'
p1865
S'franco'
p1866
tp1867
a(S'channing'
p1868
S'tatum'
p1869
S'is'
p1870
tp1871
a(S'fucking'
p1872
S'gangnam'
p1873
S'style'
p1874
tp1875
a(S'thoroughly'
p1876
S'impressed'
p1877
S'with'
p1878
tp1879
a(S'a'
S'chemistry'
p1880
S'tutor'
p1881
tp1882
a(S'michigan'
p1883
S'balcony'
p1884
S'tickets'
p1885
tp1886
a(S'uh'
p1887
S'huh'
p1888
S'uh'
p1889
tp1890
a(S'the'
p1891
S'guest'
p1892
S'speaker'
p1893
tp1894
a(S'excellent'
p1895
S'satisfying'
p1896
S'and'
p1897
tp1898
a(S'blue'
p1899
S'man'
p1900
S'group'
p1901
tp1902
a(S'own'
p1903
S'two'
p1904
S'gyms'
p1905
tp1906
a(S'a'
S'pleasant'
p1907
S'surprise'
p1908
tp1909
a(g923
g924
S'if'
p1910
tp1911
a(S'mario'
p1912
S'kart'
p1913
S'and'
p1914
tp1915
a(g1493
S'fat'
p1916
S'on'
p1917
tp1918
a(S'global'
p1919
S'warming'
p1920
S''
tp1921
a(S'liam'
p1922
S'neesons'
p1923
S'daughter'
p1924
tp1925
a(S'yoga'
p1926
S'know'
p1927
S'peace'
p1928
tp1929
a(S'iu'
p1930
S'tailgating'
p1931
S'field'
p1932
tp1933
a(S'plan'
p1934
S'too'
p1935
S'buttt'
p1936
tp1937
a(S'white'
p1938
S'chocolate'
p1939
S'mocha'
p1940
tp1941
a(g380
g1003
S'bruce'
p1942
tp1943
a(g357
g358
S'tears'
p1944
tp1945
a(S'changes'
p1946
S'his'
p1947
S'icon'
p1948
tp1949
a(S'taylor'
p1950
S'swift'
p1951
S'song'
p1952
tp1953
a(S'girl'
p1954
S'scout'
p1955
S'cookies'
p1956
tp1957
a(S'busted'
p1958
S'out'
p1959
S'laughing'
p1960
tp1961
a(S'sigma'
p1962
S'alpha'
p1963
S'mu'
p1964
tp1965
a(S'doing'
p1966
S'follow'
p1967
S'backs'
p1968
tp1969
a(S'morning'
p1970
S'tweeps'
p1971
S'lets'
p1972
tp1973
a(S'the'
p1974
S'holiday'
p1975
S'inn'
p1976
tp1977
a(S'these'
p1978
S'cars'
p1979
S'end'
p1980
tp1981
a(S'foam'
p1982
S'on'
p1983
S'foam'
p1984
tp1985
a(g432
g433
S'prep'
p1986
tp1987
a(S'my'
p1988
S'beau'
p1989
S'bear'
p1990
tp1991
a(S'works'
p1992
S'both'
p1993
S'ways'
p1994
tp1995
a(S'very'
p1996
S'very'
p1997
S'rarely'
p1998
tp1999
a(S'standing'
p2000
S'ovation'
p2001
S'heregt'
p2002
tp2003
a(S'w'
S'vusi'
p2004
S'mahlasela'
p2005
tp2006
a(S'love'
p2007
S'tom'
p2008
S'crean'
p2009
tp2010
a(S'smaller'
p2011
S'than'
p2012
S'justin'
p2013
tp2014
a(S'gold'
p2015
S'trans'
p2016
S'am'
p2017
tp2018
a(S'kiss'
p2019
S'you'
p2020
S'videooooo'
p2021
tp2022
a(S'the'
p2023
S'smoke'
p2024
S'machines'
p2025
tp2026
a(S'gay'
p2027
S'bar'
p2028
S'gay'
p2029
tp2030
a(S'a'
S'british'
p2031
S'accent'
p2032
tp2033
a(S'angola'
p2034
S'bound'
p2035
S'in'
p2036
tp2037
a(S'rt'
p2038
g1309
g1310
tp2039
a(g1056
g1057
S'it'
p2040
tp2041
a(S'craft'
p2042
S'city'
p2043
S'bitch'
p2044
tp2045
a(S'keyshia'
p2046
S'cole'
p2047
S'and'
p2048
tp2049
a(S'sign'
p2050
S'da'
p2051
S'ting'
p2052
tp2053
a(S'never'
p2054
S'ending'
p2055
S'toilet'
p2056
tp2057
a(S'separated'
p2058
S'at'
p2059
S'birth'
p2060
tp2061
a(S'major'
p2062
S'douche'
p2063
S'lord'
p2064
tp2065
a(S'japanese'
p2066
S'music'
p2067
S'video'
p2068
tp2069
a(S'lookin'
p2070
S'sexy'
p2071
S'af'
p2072
tp2073
a(S'winter'
p2074
S'princess'
p2075
S'nails'
p2076
tp2077
a(S'by'
p2078
S'lupe'
p2079
S'fiasco'
p2080
tp2081
a(S'kim'
p2082
S'kardashian'
p2083
S'is'
p2084
tp2085
a(S'and'
p2086
S'north'
p2087
S'korea'
p2088
tp2089
a(S'of'
p2090
S'mexican'
p2091
g420
tp2092
a(S'at'
p2093
S'olive'
p2094
S'garden'
p2095
tp2096
a(S'touchdown'
p2097
S'colts'
p2098
S'win'
p2099
tp2100
a(S'michigan'
p2101
S'ga'
p2102
S'tickets'
p2103
tp2104
a(S'crabby'
p2105
g152
g153
tp2106
a(S'monster'
p2107
S'pit'
p2108
S'key'
p2109
tp2110
a(S'selenas'
p2111
S'perfume'
p2112
S'smells'
p2113
tp2114
a(S'psych'
p2115
S'extra'
p2116
S'credit'
p2117
tp2118
a(g441
g1606
S'bar'
p2119
tp2120
a(S'long'
p2121
g518
g519
tp2122
a(S'dat'
p2123
S'ass'
p2124
S'kicked'
p2125
tp2126
a(S'full'
p2127
S'moon'
p2128
S'tonight'
p2129
tp2130
a(S'clap'
p2131
S'clap'
p2132
S'boiler'
p2133
tp2134
a(S'louis'
p2135
S'on'
p2136
S'feb'
p2137
tp2138
a(S'by'
p2139
S'ben'
p2140
S'folds'
p2141
tp2142
a(S'no'
p2143
S'passenger'
p2144
S'train'
p2145
tp2146
a(S'big'
p2147
S'ass'
p2148
S'spider'
p2149
tp2150
a(S'subway'
p2151
S'online'
p2152
S'training'
p2153
tp2154
a(S'curb'
p2155
S'stomp'
p2156
S'you'
p2157
tp2158
a(g735
g736
S'button'
p2159
tp2160
a(S'defeats'
p2161
S'the'
p2162
S'purpose'
p2163
tp2164
a(S'oaken'
p2165
S'bucket'
p2166
S'game'
p2167
tp2168
a(S'jack'
p2169
S'rose'
p2170
S'jack'
p2171
tp2172
a(S'obama'
p2173
S'supporters'
p2174
S'versus'
p2175
tp2176
a(S'ketchup'
p2177
S'and'
p2178
S'mustard'
p2179
tp2180
a(S'keha'
p2181
S'gaga'
p2182
S'bieber'
p2183
tp2184
a(S'the'
p2185
S'rent'
p2186
S'soundtrack'
p2187
tp2188
a(S'turner'
p2189
S''
S'rushes'
p2190
tp2191
a(g2079
g2080
S'is'
p2192
tp2193
a(S'parks'
p2194
S'amp'
p2195
S'rec'
p2196
tp2197
a(S'damn'
p2198
S'auto'
p2199
S'correct'
p2200
tp2201
a(S'feeha'
p2202
S'khawaga'
p2203
S'leh'
p2204
tp2205
a(S'cory'
p2206
S'and'
p2207
S'topangas'
p2208
tp2209
a(S'bailey'
p2210
S'and'
p2211
S'eileen'
p2212
tp2213
a(S'town'
p2214
S'is'
p2215
S'smelly'
p2216
tp2217
a(S'a'
S'rebuilding'
p2218
S'yr'
p2219
tp2220
a(S'supreme'
p2221
S'court'
p2222
S'justice'
p2223
tp2224
a(S'westboro'
p2225
S'baptist'
p2226
S'church'
p2227
tp2228
a(S'across'
p2229
S'from'
p2230
S'briscoe'
p2231
tp2232
a(S'funniest'
p2233
S'moments'
p2234
S'videos'
p2235
tp2236
a(S'st'
p2237
S'louis'
p2238
S'lt'
p2239
tp2240
a(S'a'
S'veggie'
p2241
S'burger'
p2242
tp2243
a(S'checking'
p2244
S'dms'
p2245
S'o'
tp2246
a(S'carly'
p2247
S'rae'
p2248
S'jepsen'
p2249
tp2250
a(S'and'
p2251
S'hip'
p2252
S'hop'
p2253
tp2254
a(S'black'
p2255
S'lace'
p2256
S'cabaret'
p2257
tp2258
a(S'law'
p2259
S'amp'
p2260
S'order'
p2261
tp2262
a(g149
g150
S'ting'
p2263
tp2264
a(S'like'
p2265
g1534
g1535
tp2266
a(g252
S'their'
p2267
S'hands'
p2268
tp2269
a(S'legs'
p2270
S'are'
p2271
S'sore'
p2272
tp2273
a(S'r'
S'e'
S'd'
tp2274
a(S'watch'
p2275
S'salad'
p2276
S'fingers'
p2277
tp2278
a(S'big'
p2279
S'red'
p2280
S'apartments'
p2281
tp2282
a(S'rape'
p2283
S'whistle'
p2284
S''
tp2285
a(S'takes'
p2286
S'off'
p2287
S'headphones'
p2288
tp2289
a(S'heidi'
p2290
S'benson'
p2291
S'is'
p2292
tp2293
a(S'of'
p2294
S'veggie'
p2295
S'burgers'
p2296
tp2297
a(S'your'
p2298
S'comfort'
p2299
S'zone'
p2300
tp2301
a(S'hahahahaha'
p2302
S'holy'
p2303
S'shit'
p2304
tp2305
a(g1270
S'items'
p2306
S'via'
p2307
tp2308
a(S'red'
p2309
S'hot'
p2310
S'chili'
p2311
tp2312
a(S'a'
S'leisurely'
p2313
S'walker'
p2314
tp2315
a(S''
S'millennium'
p2316
S'park'
p2317
tp2318
a(S'gouge'
p2319
S'my'
p2320
S'eyes'
p2321
tp2322
a(S'from'
p2323
S'steak'
p2324
S'n'
tp2325
a(g2098
g2099
S'colts'
p2326
tp2327
a(S'gorgeous'
p2328
g125
g126
tp2329
a(S'toothpaste'
p2330
S'for'
p2331
S'dinner'
p2332
tp2333
a(g594
g595
S'lmfaoooo'
p2334
tp2335
a(g350
g351
S'day'
p2336
tp2337
a(S'your'
p2338
S'gd'
p2339
S'feet'
p2340
tp2341
a(S'media'
p2342
S'attacks'
p2343
S'trailer'
p2344
tp2345
a(S'lion'
p2346
S'king'
p2347
S'game'
p2348
tp2349
a(g1352
g1353
S'out'
p2350
tp2351
a(g433
g1986
S'football'
p2352
tp2353
a(S'whatcha'
p2354
S'lookin'
p2355
S'at'
p2356
tp2357
a(S'wit'
p2358
S'my'
p2359
S'puy'
p2360
tp2361
a(S'kim'
p2362
S'and'
p2363
S'kanyes'
p2364
tp2365
a(S'cream'
p2366
S'ice'
p2367
S'cream'
p2368
tp2369
a(S'makes'
p2370
S'rolling'
p2371
S'stones'
p2372
tp2373
a(S'tic'
p2374
S'tacs'
p2375
S'in'
p2376
tp2377
a(g259
g260
S'i'
tp2378
a(S'other'
p2379
S'peoples'
p2380
S'opinions'
p2381
tp2382
a(S'gamma'
p2383
S'phi'
p2384
S'beta'
p2385
tp2386
a(S'the'
p2387
S'squat'
p2388
S'rack'
p2389
tp2390
a(S'instant'
p2391
S'mashed'
p2392
S'potatoes'
p2393
tp2394
a(S'pulp'
p2395
S'fiction'
p2396
S'is'
p2397
tp2398
a(g2170
g2171
S'rose'
p2399
tp2400
a(S'dark'
p2401
S'skeleton'
p2402
S'jumpsuit'
p2403
tp2404
a(S'ron'
p2405
S'swanson'
p2406
S'look'
p2407
tp2408
a(S'rico'
p2409
S'will'
p2410
S'forever'
p2411
tp2412
a(g1185
g1186
S'tonight'
p2413
tp2414
a(S'the'
p2415
S'pacific'
p2416
S'coast'
p2417
tp2418
a(g2245
S'o'
S'k'
tp2419
a(S'chips'
p2420
S'and'
p2421
S'salsa'
p2422
tp2423
a(S'lil'
p2424
S'plot'
p2425
S'twist'
p2426
tp2427
a(S'milli'
p2428
S'a'
S'milli'
p2429
tp2430
a(S'really'
p2431
S'small'
p2432
S'gang'
p2433
tp2434
a(S'pair'
p2435
S'of'
p2436
S'jordans'
p2437
tp2438
a(S'when'
p2439
g2342
g2343
tp2440
a(S'no'
p2441
S'shame'
p2442
S'november'
p2443
tp2444
a(g1708
g1709
S'itself'
p2445
tp2446
a(S'incase'
p2447
S'anyone'
p2448
S'was'
p2449
tp2450
a(S'watching'
p2451
S'harry'
p2452
S'potter'
p2453
tp2454
a(S'les'
p2455
S'mis'
p2456
S'with'
p2457
tp2458
a(S'freedom'
p2459
S'writers'
p2460
S'is'
p2461
tp2462
a(g114
g115
S'and'
p2463
tp2464
a(g1712
g1713
S'twp'
p2465
tp2466
a(S'st'
p2467
S'louis'
p2468
S'd'
tp2469
a(g650
g651
S'hunter'
p2470
tp2471
a(S'kiss'
p2472
S'your'
p2473
S'lips'
p2474
tp2475
a(g251
g252
g2267
tp2476
a(S'new'
p2477
S'unfollower'
p2478
S'via'
p2479
tp2480
a(S'o'
S'k'
S'o'
tp2481
a(S'uploaded'
p2482
g1152
g1153
tp2483
a(S'gettin'
p2484
g2123
g2124
tp2485
a(S''
S'pine'
p2486
S'trails'
p2487
tp2488
a(g1249
g1250
S'drive'
p2489
tp2490
a(S'extra'
p2491
S'credit'
p2492
S'points'
p2493
tp2494
a(S'hate'
p2495
S'urgent'
p2496
S'care'
p2497
tp2498
a(S'millennium'
p2499
S'park'
p2500
S'the'
p2501
tp2502
a(S'at'
p2503
S'crystal'
p2504
S'city'
p2505
tp2506
a(S'broke'
p2507
S'college'
p2508
S'kid'
p2509
tp2510
a(S'scavenger'
p2511
S'hunt'
p2512
S'today'
p2513
tp2514
a(S'history'
p2515
S'repeats'
p2516
S'itself'
p2517
tp2518
a(S'walcott'
p2519
g148
g149
tp2520
a(S'an'
p2521
g777
g778
tp2522
a(g1426
g1427
S'clap'
p2523
tp2524
a(S'january'
p2525
g1017
g1018
tp2526
a(g386
g387
S'bloomington'
p2527
tp2528
a(g1888
g1889
S'huh'
p2529
tp2530
a(S'the'
p2531
S'atlas'
p2532
S'ballroom'
p2533
tp2534
a(S'flush'
p2535
S'the'
p2536
S'toilet'
p2537
tp2538
a(S'fantasy'
p2539
S'football'
p2540
S'league'
p2541
tp2542
a(S'about'
p2543
S'gay'
p2544
S'marriage'
p2545
tp2546
a(S'slappa'
p2547
S'da'
p2548
S'bass'
p2549
tp2550
a(S'i'
g1256
g1257
tp2551
a(S'youd'
p2552
S'think'
p2553
S'theyd'
p2554
tp2555
a(S'extra'
p2556
S'credit'
p2557
S'movie'
p2558
tp2559
a(S'little'
p2560
S'things'
p2561
S'slip'
p2562
tp2563
a(S'lie'
p2564
S'upon'
p2565
S'lie'
p2566
tp2567
a(S'taylor'
p2568
S'swift'
p2569
S'tickets'
p2570
tp2571
a(S'larry'
p2572
S'black'
p2573
S'jr'
p2574
tp2575
a(S'its'
p2576
S'socially'
p2577
S'acceptable'
p2578
tp2579
a(S'absolute'
p2580
S'favorite'
p2581
S'song'
p2582
tp2583
a(S'a'
S'broken'
p2584
S'rib'
p2585
tp2586
a(S'a'
S'nerf'
p2587
S'gun'
p2588
tp2589
a(S'codeine'
p2590
S'cups'
p2591
S'paint'
p2592
tp2593
a(S'sour'
p2594
S'patch'
p2595
S'kids'
p2596
tp2597
a(S'dissecting'
p2598
S'a'
g1086
tp2599
a(S'playlist'
p2600
S'on'
p2601
S'spotify'
p2602
tp2603
a(S'worn'
p2604
S'glasses'
p2605
S'since'
p2606
tp2607
a(S'iu'
p2608
S'secure'
p2609
S'sucks'
p2610
tp2611
a(g1269
g1270
g2306
tp2612
a(S'felton'
p2613
S'jr'
p2614
S'smith'
p2615
tp2616
a(S'city'
p2617
S'shuts'
p2618
S'down'
p2619
tp2620
a(S'choreography'
p2621
S'and'
p2622
S'synchronization'
p2623
tp2624
a(S'direct'
p2625
S'quote'
p2626
S'from'
p2627
tp2628
a(S'york'
p2629
S'new'
p2630
S'york'
p2631
tp2632
a(S'think'
p2633
S'baseball'
p2634
S'players'
p2635
tp2636
a(S'swedish'
p2637
S'house'
p2638
S'mafia'
p2639
tp2640
a(S'fast'
p2641
g7
g8
tp2642
a(S'bum'
p2643
S'du'
p2644
g1669
tp2645
a(S'the'
p2646
S'stripper'
p2647
S'pole'
p2648
tp2649
a(g936
g937
S'til'
p2650
tp2651
a(S'username'
p2652
S'is'
p2653
S'ktevault'
p2654
tp2655
a(S'banana'
p2656
S'stand'
p2657
S'theres'
p2658
tp2659
a(S'recollect'
p2660
S'nothing'
p2661
S'from'
p2662
tp2663
a(S'goo'
p2664
S'goo'
p2665
S'dolls'
p2666
tp2667
a(S'food'
p2668
g1188
g1189
tp2669
a(S'shampoo'
p2670
S'and'
p2671
S'conditioner'
p2672
tp2673
a(S'pebble'
p2674
S'beach'
p2675
S''
tp2676
a(S'mac'
p2677
S'amp'
p2678
S'cheese'
p2679
tp2680
a(g2004
g2005
S''
tp2681
a(S'he'
p2682
S'shall'
p2683
S'appear'
p2684
tp2685
a(S'have'
p2686
S'anybodys'
p2687
S'number'
p2688
tp2689
a(S'happy'
p2690
S'birthday'
p2691
S'girlie'
p2692
tp2693
a(S'high'
p2694
S'profile'
p2695
S'athletic'
p2696
tp2697
a(S'one'
p2698
S'step'
p2699
S'closer'
p2700
tp2701
a(S'first'
p2702
g370
g371
tp2703
a(S'psych'
p2704
S'psych'
p2705
S'psych'
p2706
tp2707
a(g1647
S'spring'
p2708
S'break'
p2709
tp2710
a(g552
g553
S'but'
p2711
tp2712
a(S'rt'
p2713
S'meek'
p2714
S'mill'
p2715
tp2716
a(S'im'
p2717
S'fckin'
p2718
S'sayin'
p2719
tp2720
a(S'excuses'
p2721
S'excuses'
p2722
S'haha'
p2723
tp2724
a(S'the'
p2725
g2664
g2665
tp2726
a(S'lies'
p2727
S'lies'
p2728
S'lies'
p2729
tp2730
a(S'skip'
p2731
S'class'
p2732
S'skip'
p2733
tp2734
a(g115
g2463
S'fuckin'
p2735
tp2736
a(S'robin'
p2737
S'looks'
p2738
S'nothing'
p2739
tp2740
a(S'cocks'
p2741
S'to'
p2742
S'blow'
p2743
tp2744
a(S'retweeted'
p2745
S'and'
p2746
S'favorited'
p2747
tp2748
a(S'cinnamon'
p2749
S'toast'
p2750
S'crunch'
p2751
tp2752
a(S'phillies'
p2753
S'lost'
p2754
S'their'
p2755
tp2756
a(S'belieber'
p2757
S'follow'
p2758
S'back'
p2759
tp2760
a(S'at'
p2761
S'mini'
p2762
S'camp'
p2763
tp2764
a(S'usa'
p2765
S'usa'
p2766
S'usa'
p2767
tp2768
a(S'yea'
p2769
S'yea'
p2770
S'yea'
p2771
tp2772
a(S'dance'
p2773
S'experience'
p2774
S'required'
p2775
tp2776
a(S'some'
p2777
S'taco'
p2778
S'bell'
p2779
tp2780
a(S'at'
p2781
S'rachaels'
p2782
S'cafe'
p2783
tp2784
a(S'tylenol'
p2785
S'extra'
p2786
S'strength'
p2787
tp2788
a(g285
g286
S'fashion'
p2789
tp2790
a(S'that'
p2791
S'escalated'
p2792
S'quickly'
p2793
tp2794
a(g1111
g1112
S'beta'
p2795
tp2796
a(S'wearing'
p2797
S'flip'
p2798
S'flops'
p2799
tp2800
a(S'stef'
p2801
S'new'
p2802
S'country'
p2803
tp2804
a(S'star'
p2805
S'wars'
p2806
S'episode'
p2807
tp2808
a(S'smoked'
p2809
S'a'
S'cigarette'
p2810
tp2811
a(S'new'
p2812
S'unfollowers'
p2813
S'via'
p2814
tp2815
a(S'dim'
p2816
S'the'
p2817
S'lights'
p2818
tp2819
a(S''
S'codeine'
p2820
S'cups'
p2821
tp2822
a(S'a'
S'double'
p2823
S'standard'
p2824
tp2825
a(S'ending'
p2826
S'the'
p2827
g1719
tp2828
a(S'want'
p2829
S'taco'
p2830
S'bell'
p2831
tp2832
a(S'rat'
p2833
S'city'
p2834
S'bitch'
p2835
tp2836
a(S'is'
p2837
S'posting'
p2838
S'selfies'
p2839
tp2840
a(S'lines'
p2841
S'on'
p2842
S'lines'
p2843
tp2844
a(S'victoria'
p2845
S'secret'
p2846
S'fashion'
p2847
tp2848
a(S'the'
p2849
S'blair'
p2850
S'walsh'
p2851
tp2852
a(S'this'
p2853
S'cranberry'
p2854
S'apple'
p2855
tp2856
a(S'a'
S'jet'
p2857
S'plane'
p2858
tp2859
a(S'donald'
p2860
S'brown'
p2861
S'over'
p2862
tp2863
a(g2310
g2311
S'peppers'
p2864
tp2865
a(S'main'
p2866
g2668
g1188
tp2867
a(S'see'
p2868
S'texas'
p2869
S'chainsaw'
p2870
tp2871
a(S's'
S't'
S'o'
tp2872
a(S'picture'
p2873
S'so'
p2874
S'vivid'
p2875
tp2876
a(S'corner'
p2877
S'and'
p2878
S'reflect'
p2879
tp2880
a(S'couple'
p2881
S'months'
p2882
S'without'
p2883
tp2884
a(S'zombie'
p2885
S'apocalypse'
p2886
S'that'
p2887
tp2888
a(g1037
g1038
g1420
tp2889
a(S'nasty'
p2890
S'smelling'
p2891
S'chicken'
p2892
tp2893
a(S'grace'
p2894
S'and'
p2895
S'mercy'
p2896
tp2897
a(S''
S'fah'
p2898
S'dayz'
p2899
tp2900
a(g2695
g2696
S'events'
p2901
tp2902
a(S'north'
p2903
S'american'
p2904
S'leg'
p2905
tp2906
a(S'taylor'
p2907
S'swifts'
p2908
S'new'
p2909
tp2910
a(S'ands'
p2911
S'or'
p2912
S'buts'
p2913
tp2914
a(S'americas'
p2915
S'next'
p2916
S'top'
p2917
tp2918
a(S'kind'
p2919
S'of'
p2920
S'satanic'
p2921
tp2922
a(S'my'
p2923
S'immune'
p2924
S'system'
p2925
tp2926
a(S'hired'
p2927
S'a'
S'stripper'
p2928
tp2929
a(S'mwah'
p2930
S'mwah'
p2931
S'mwah'
p2932
tp2933
a(S'bball'
p2934
S'at'
p2935
S'hs'
p2936
tp2937
a(S'st'
p2938
S'louis'
p2939
S'next'
p2940
tp2941
a(S'down'
p2942
g2131
g2132
tp2943
a(g2460
g2461
S'trending'
p2944
tp2945
a(S'floorsets'
p2946
S'from'
p2947
S'pm'
p2948
tp2949
a(S'a'
S'hockey'
p2950
S'puck'
p2951
tp2952
a(S'hd'
p2953
S'studio'
p2954
S'headphones'
p2955
tp2956
a(S'hit'
p2957
S'rock'
p2958
S'bottom'
p2959
tp2960
a(S'beliebers'
p2961
S'beliebers'
p2962
S'beliebers'
p2963
tp2964
a(S'inches'
p2965
S'taller'
p2966
S'than'
p2967
tp2968
a(S'time'
p2969
S'fo'
p2970
S'dat'
p2971
tp2972
a(S'pursuit'
p2973
S'of'
p2974
S'happiness'
p2975
tp2976
a(S'ward'
p2977
S'performing'
p2978
S'put'
p2979
tp2980
a(S'the'
p2981
S'soy'
p2982
S'sauce'
p2983
tp2984
a(S'lace'
p2985
S'on'
p2986
S'lace'
p2987
tp2988
a(S'few'
p2989
S'months'
p2990
S'ago'
p2991
tp2992
a(S'or'
p2993
S'both'
p2994
S'uptons'
p2995
tp2996
a(S'pepper'
p2997
S'spray'
p2998
S'in'
p2999
tp3000
a(S'follow'
p3001
S'either'
p3002
S'ton'
p3003
tp3004
a(g1003
g1942
S'lee'
p3005
tp3006
a(S'we'
p3007
S'gettin'
p3008
S'rowdy'
p3009
tp3010
a(S'salted'
p3011
S'caramel'
p3012
S'mocha'
p3013
tp3014
a(S'study'
p3015
S'abroad'
p3016
S'application'
p3017
tp3018
a(S'middle'
p3019
S'finger'
p3020
S'emoji'
p3021
tp3022
a(S'my'
p3023
g2283
g2284
tp3024
a(S'check'
p3025
S'ur'
p3026
S'dms'
p3027
tp3028
a(S'physics'
p3029
S'physics'
p3030
S'physics'
p3031
tp3032
a(S'get'
p3033
S'kanesha'
p3034
S'unblocked'
p3035
tp3036
a(S'wearing'
p3037
S'two'
p3038
S'pairs'
p3039
tp3040
a(S'kyrie'
p3041
S'irving'
p3042
S'is'
p3043
tp3044
a(S'hate'
p3045
S'scary'
p3046
S'movies'
p3047
tp3048
a(S'shake'
p3049
S'from'
p3050
S'steak'
p3051
tp3052
a(S'borrow'
p3053
S'your'
p3054
S'notes'
p3055
tp3056
a(S'shut'
p3057
S'up'
p3058
S'sorrells'
p3059
tp3060
a(S'went'
p3061
S'grocery'
p3062
S'shopping'
p3063
tp3064
a(S'down'
p3065
S'memory'
p3066
S'lane'
p3067
tp3068
a(S'the'
p3069
S'auto'
p3070
S'bailout'
p3071
tp3072
a(S'only'
p3073
S'correct'
p3074
S'answer'
p3075
tp3076
a(S'two'
p3077
S'completely'
p3078
S'different'
p3079
tp3080
a(S'huge'
p3081
g1013
g1014
tp3082
a(g1128
g1272
S'photos'
p3083
tp3084
a(S'with'
p3085
g2953
g2954
tp3086
a(S'and'
p3087
S'highly'
p3088
S'favored'
p3089
tp3090
a(S'iu'
p3091
g1294
g1295
tp3092
a(S'hated'
p3093
S'their'
p3094
S'fans'
p3095
tp3096
a(g330
g331
S'when'
p3097
tp3098
a(S'rise'
p3099
S'and'
p3100
S'shine'
p3101
tp3102
a(S'me'
p3103
S'jumpin'
p3104
S'jammerz'
p3105
tp3106
a(S'jar'
p3107
S'of'
p3108
S'heads'
p3109
tp3110
a(S'the'
p3111
S'stair'
p3112
S'master'
p3113
tp3114
a(S'home'
p3115
S'cooked'
p3116
S'food'
p3117
tp3118
a(S'opinion'
p3119
S'doesnt'
p3120
S'matter'
p3121
tp3122
a(S'prank'
p3123
S'wars'
p3124
S'begin'
p3125
tp3126
a(g2644
g1669
g1670
tp3127
a(S'order'
p3128
S'svu'
p3129
S'marathon'
p3130
tp3131
a(S'suck'
p3132
g922
g923
tp3133
a(g1797
g1798
S'into'
p3134
tp3135
a(g483
g484
S'of'
p3136
tp3137
a(S'wearing'
p3138
S'air'
p3139
S'maxes'
p3140
tp3141
a(S'hes'
p3142
S'possessed'
p3143
S'by'
p3144
tp3145
a(S'rt'
p3146
S'lil'
p3147
S'twustin'
p3148
tp3149
a(g2083
g2084
S'pregnant'
p3150
tp3151
a(S'jacket'
p3152
S'shirt'
p3153
S'man'
p3154
tp3155
a(S'brushed'
p3156
S'my'
p3157
S'teeth'
p3158
tp3159
a(S'poikes'
p3160
S'jingle'
p3161
S'poikes'
p3162
tp3163
a(S'at'
p3164
S'jimmy'
p3165
S'johns'
p3166
tp3167
a(S'george'
p3168
S'hill'
p3169
S'with'
p3170
tp3171
a(S'grab'
p3172
S'no'
p3173
S'shoes'
p3174
tp3175
a(g1853
g1854
S'related'
p3176
tp3177
a(g2343
g2344
S'via'
p3178
tp3179
a(S'just'
p3180
S'stumbled'
p3181
S'across'
p3182
tp3183
a(S'truest'
p3184
S'statement'
p3185
S'of'
p3186
tp3187
a(S'an'
p3188
S'art'
p3189
S'form'
p3190
tp3191
a(S'kanye'
p3192
S'amp'
p3193
S'jayz'
p3194
tp3195
a(S'compassion'
p3196
S'for'
p3197
S'others'
p3198
tp3199
a(S'last'
p3200
S'repeating'
p3201
S'date'
p3202
tp3203
a(S'your'
p3204
S'iudm'
p3205
S'application'
p3206
tp3207
a(S'lolz'
p3208
S'yes'
p3209
S'babby'
p3210
tp3211
a(S'die'
p3212
S'young'
p3213
S'remix'
p3214
tp3215
a(S'kanesha'
p3216
S'get'
p3217
S'unblocked'
p3218
tp3219
a(S'sooner'
p3220
S'or'
p3221
S'later'
p3222
tp3223
a(S'around'
p3224
S'scratches'
p3225
S'back'
p3226
tp3227
a(S'hani'
p3228
S'hani'
p3229
S'come'
p3230
tp3231
a(S'nicks'
p3232
S'english'
p3233
S'hut'
p3234
tp3235
a(S'mustaches'
p3236
S'on'
p3237
S'mustaches'
p3238
tp3239
a(S'lucky'
p3240
S'charms'
p3241
S'in'
p3242
tp3243
a(S'a'
g61
g62
tp3244
a(S'tournament'
p3245
S'last'
p3246
S'year'
p3247
tp3248
a(S'kevin'
p3249
S'hart'
p3250
S'is'
p3251
tp3252
a(S'snapbacks'
p3253
S'and'
p3254
S'tattoos'
p3255
tp3256
a(S'the'
p3257
S'bowling'
p3258
S'alley'
p3259
tp3260
a(S'c'
S'fuckin'
p3261
S'b'
tp3262
a(S'never'
p3263
g2244
g2245
tp3264
a(S'some'
p3265
S'french'
p3266
S'toast'
p3267
tp3268
a(S'automatically'
p3269
S'checked'
p3270
S'by'
p3271
tp3272
a(S'of'
p3273
S'performance'
p3274
S'enhancers'
p3275
tp3276
a(S'sam'
p3277
S'houston'
p3278
S'state'
p3279
tp3280
a(S'noodles'
p3281
S'amp'
p3282
S'company'
p3283
tp3284
a(S'havent'
p3285
S'eaten'
p3286
S'anything'
p3287
tp3288
a(S'wit'
p3289
S'juicy'
p3290
S'j'
tp3291
a(S'an'
p3292
S'nfl'
p3293
S'running'
p3294
tp3295
a(S'doctor'
p3296
S'saved'
p3297
S'us'
p3298
tp3299
a(S'purdouche'
p3300
S'be'
p3301
g2484
tp3302
a(S'new'
p3303
S'follower'
p3304
S'via'
p3305
tp3306
a(g2005
S''
S'msg'
p3307
tp3308
a(S'truth'
p3309
S'shall'
p3310
S'set'
p3311
tp3312
a(S'im'
p3313
S'pinching'
p3314
S'pennies'
p3315
tp3316
a(S'box'
p3317
S'of'
p3318
S'chocolates'
p3319
tp3320
a(S'new'
p3321
S'destinys'
p3322
S'child'
p3323
tp3324
a(S'nightmare'
p3325
S'before'
p3326
S'christmas'
p3327
tp3328
a(S'granite'
p3329
S'jokes'
p3330
S'tho'
p3331
tp3332
a(S'go'
p3333
S'ice'
p3334
S'skating'
p3335
tp3336
a(S'boom'
p3337
S'boom'
p3338
S'boom'
p3339
tp3340
a(S'seeing'
p3341
S'pitch'
p3342
S'perfect'
p3343
tp3344
a(S'bean'
p3345
S''
g2316
tp3346
a(S'russell'
p3347
S'wilson'
p3348
S'is'
p3349
tp3350
a(g2500
g2501
g3345
tp3351
a(S'jingle'
p3352
g3160
g3161
tp3353
a(S'league'
p3354
S'of'
p3355
S'legends'
p3356
tp3357
a(S'courage'
p3358
S'the'
p3359
S'cowardly'
p3360
tp3361
a(g1420
g1421
S'inc'
p3362
tp3363
a(S'rt'
p3364
g1317
g1318
tp3365
a(S'condone'
p3366
S'this'
p3367
S'fuckery'
p3368
tp3369
a(g94
g95
S'of'
p3370
tp3371
a(S'to'
p3372
S'chief'
p3373
S'keef'
p3374
tp3375
a(S'scott'
p3376
S'walker'
p3377
S'rt'
p3378
tp3379
a(S'park'
p3380
S'on'
p3381
S'morton'
p3382
tp3383
a(S'manti'
p3384
S'teos'
p3385
S'girlfriend'
p3386
tp3387
a(S'gallon'
p3388
S'of'
p3389
S'milk'
p3390
tp3391
a(S'anxiety'
p3392
S'on'
p3393
S'anxiety'
p3394
tp3395
a(S'kool'
p3396
S'aid'
p3397
S'that'
p3398
tp3399
a(g2091
g420
g421
tp3400
a(S'good'
p3401
g1970
g1971
tp3402
a(S'dummy'
p3403
S'but'
p3404
S'whats'
p3405
tp3406
a(S'proofreading'
p3407
S'is'
p3408
S'necessary'
p3409
tp3410
a(S'past'
p3411
S'your'
p3412
S'bedtime'
p3413
tp3414
a(g1484
g1485
S'her'
p3415
tp3416
a(S'this'
p3417
S'manti'
p3418
S'teo'
p3419
tp3420
a(S'an'
p3421
S'onside'
p3422
S'kick'
p3423
tp3424
a(S'needs'
p3425
S'more'
p3426
S'maps'
p3427
tp3428
a(S'fantasy'
p3429
S'football'
p3430
S'team'
p3431
tp3432
a(S'read'
p3433
S'signed'
p3434
S'anonymous'
p3435
tp3436
a(S'dragon'
p3437
S'ball'
p3438
S'z'
tp3439
a(S'own'
p3440
S'reality'
p3441
S'show'
p3442
tp3443
a(g157
g158
S''
tp3444
a(S'very'
p3445
S'gaga'
p3446
S'holiday'
p3447
tp3448
a(S'john'
p3449
S'legend'
p3450
S'tonight'
p3451
tp3452
a(S'if'
p3453
S'mitt'
p3454
S'wins'
p3455
tp3456
a(S'big'
p3457
S'bang'
p3458
S'theory'
p3459
tp3460
a(S'tds'
p3461
S''
S'ints'
p3462
tp3463
a(S't'
S'w'
S'o'
tp3464
a(g1364
g1365
S'an'
p3465
tp3466
a(S'just'
p3467
S'plain'
p3468
S'irresponsible'
p3469
tp3470
a(S'boo'
p3471
S'boo'
p3472
S'magoo'
p3473
tp3474
a(S'brb'
p3475
S'dying'
p3476
S'xd'
p3477
tp3478
a(S'will'
p3479
g602
g603
tp3480
a(S'first'
p3481
S'celeb'
p3482
S'crush'
p3483
tp3484
a(S'fine'
p3485
S'line'
p3486
S'between'
p3487
tp3488
a(g881
g882
S'album'
p3489
tp3490
a(S'a'
S'reasonable'
p3491
S'price'
p3492
tp3493
a(g2916
g2917
S'model'
p3494
tp3495
a(S'see'
p3496
S'our'
p3497
S'pyramids'
p3498
tp3499
a(S'jacket'
p3500
S'shirt'
p3501
S'call'
p3502
tp3503
a(S'girl'
p3504
S'meets'
p3505
S'world'
p3506
tp3507
a(S'some'
p3508
S'brass'
p3509
S'nucks'
p3510
tp3511
a(g1181
g1182
S'legend'
p3512
tp3513
a(g2891
g2892
S'stuff'
p3514
tp3515
a(S'understanding'
p3516
S'your'
p3517
S'intentions'
p3518
tp3519
a(S'shaving'
p3520
S'my'
p3521
S'legs'
p3522
tp3523
a(g2908
g2909
S'album'
p3524
tp3525
a(S'iu'
p3526
S'vs'
p3527
S'butler'
p3528
tp3529
a(S'calm'
p3530
S'your'
p3531
S'tits'
p3532
tp3533
a(g782
g783
S'chill'
p3534
tp3535
a(S'things'
p3536
S'into'
p3537
S'perspective'
p3538
tp3539
a(S'the'
p3540
g2165
g2166
tp3541
a(S'hah'
p3542
S'hah'
p3543
S'hah'
p3544
tp3545
a(S'go'
p3546
S'glenn'
p3547
S'coco'
p3548
tp3549
a(S'assembly'
p3550
S'hall'
p3551
S'iu'
p3552
tp3553
a(S'texas'
p3554
S'chainsaw'
p3555
S'd'
tp3556
a(S'til'
p3557
S'jan'
p3558
S'th'
p3559
tp3560
a(S'gta'
p3561
S'gta'
p3562
S'gta'
p3563
tp3564
a(S'my'
p3565
S'fckin'
p3566
S'faves'
p3567
tp3568
a(S'dropped'
p3569
S'pep'
p3570
S'band'
p3571
tp3572
a(S'b'
S'b'
S'b'
tp3573
a(g2920
g2921
S'activity'
p3574
tp3575
a(S'the'
p3576
S'private'
p3577
S'sector'
p3578
tp3579
a(S'banned'
p3580
S'from'
p3581
S'radio'
p3582
tp3583
a(S'getting'
p3584
S'discharged'
p3585
S'today'
p3586
tp3587
a(S'an'
p3588
S'early'
p3589
S'bedtime'
p3590
tp3591
a(S'and'
p3592
S'diet'
p3593
S'coke'
p3594
tp3595
a(S'conducting'
p3596
S'the'
p3597
S'struggle'
p3598
tp3599
a(S'be'
p3600
S'studyingit'
p3601
S'keeps'
p3602
tp3603
a(S'meds'
p3604
S'on'
p3605
S'meds'
p3606
tp3607
a(S'high'
p3608
S'school'
p3609
S'prepare'
p3610
tp3611
a(S'fog'
p3612
S'on'
p3613
S'fog'
p3614
tp3615
a(S'selling'
p3616
S'our'
p3617
S'group'
p3618
tp3619
a(S'lace'
p3620
g1627
g1379
tp3621
a(S'successful'
p3622
S'black'
p3623
S'friday'
p3624
tp3625
a(S'kanesha'
p3626
S'and'
p3627
S'sally'
p3628
tp3629
a(S'plead'
p3630
S'the'
p3631
S'fifth'
p3632
tp3633
a(S'hate'
p3634
S'norte'
p3635
S'dame'
p3636
tp3637
a(S'credit'
p3638
S'card'
p3639
S'number'
p3640
tp3641
a(S'piece'
p3642
S'mcnugget'
p3643
S'meal'
p3644
tp3645
a(S'law'
p3646
S'of'
p3647
S'thermodynamics'
p3648
tp3649
a(S'attention'
p3650
S'iu'
p3651
S'students'
p3652
tp3653
a(S'ugly'
p3654
S'christmas'
p3655
S'sweaters'
p3656
tp3657
a(S'r'
S'rated'
p3658
S'movies'
p3659
tp3660
a(S'two'
p3661
S'final'
p3662
S'exams'
p3663
tp3664
a(S'ciera'
p3665
S'ciera'
p3666
S'ciera'
p3667
tp3668
a(S'my'
p3669
S'astronomy'
p3670
S'quiz'
p3671
tp3672
a(S'count'
p3673
S'your'
p3674
S'blessings'
p3675
tp3676
a(S'literally'
p3677
g2660
g2661
tp3678
a(S'a'
S'zombie'
p3679
S'apocalypse'
p3680
tp3681
a(S'sink'
p3682
S'the'
p3683
S'biz'
p3684
tp3685
a(g2392
g2393
S'are'
p3686
tp3687
a(g3601
g3602
S'kicking'
p3688
tp3689
a(S'push'
p3690
S'my'
p3691
S'buttons'
p3692
tp3693
a(S'th'
p3694
S'grade'
p3695
S'picnic'
p3696
tp3697
a(S'amp'
p3698
S'pitch'
p3699
S'perfect'
p3700
tp3701
a(S'year'
p3702
S'old'
p3703
S'housewife'
p3704
tp3705
a(S'pay'
p3706
S'any'
p3707
S'attention'
p3708
tp3709
a(S'st'
p3710
S'louis'
p3711
S'seeing'
p3712
tp3713
a(S'boiler'
p3714
g2942
g2131
tp3715
a(S'rutgers'
p3716
S'joining'
p3717
S'the'
p3718
tp3719
a(S'twilight'
p3720
S'premier'
p3721
S'at'
p3722
tp3723
a(S'is'
p3724
S'nicki'
p3725
S'minaj'
p3726
tp3727
a(S'most'
p3728
g951
g952
tp3729
a(S'assassins'
p3730
S'creed'
p3731
S''
tp3732
a(S'hard'
p3733
g1156
g1157
tp3734
a(S'dance'
p3735
S'dance'
p3736
S'dance'
p3737
tp3738
a(S'aap'
p3739
S'and'
p3740
S'pusha'
p3741
tp3742
a(S'public'
p3743
S'speaking'
p3744
S'class'
p3745
tp3746
a(g1963
g1964
S'fraternity'
p3747
tp3748
a(S'in'
p3749
S'da'
p3750
S'moanin'
p3751
tp3752
a(S'lana'
p3753
S'del'
p3754
S'ray'
p3755
tp3756
a(S'humanly'
p3757
S'possible'
p3758
S'to'
p3759
tp3760
a(S'highlights'
p3761
S'on'
p3762
S'espn'
p3763
tp3764
a(S'beavis'
p3765
S'and'
p3766
S'butthead'
p3767
tp3768
a(S'my'
p3769
S'connecting'
p3770
S'flight'
p3771
tp3772
a(S'sexy'
p3773
S'ass'
p3774
S'mf'
p3775
tp3776
a(S'the'
p3777
S'snap'
p3778
S'chats'
p3779
tp3780
a(S'the'
p3781
g2225
g2226
tp3782
a(S'no'
p3783
S'fucks'
p3784
S'given'
p3785
tp3786
a(S'numb'
p3787
S'by'
p3788
S'usher'
p3789
tp3790
a(S'fifth'
p3791
S'of'
p3792
S'vodka'
p3793
tp3794
a(S''
S'level'
p3795
S'neurobiology'
p3796
tp3797
a(S'bout'
p3798
S'them'
p3799
S'apples'
p3800
tp3801
a(S'zz'
p3802
g2977
g2978
tp3803
a(S'rih'
p3804
S'album'
p3805
S'drops'
p3806
tp3807
a(S'mermaidman'
p3808
S'and'
p3809
S'barnacle'
p3810
tp3811
a(S'the'
p3812
g3329
g3330
tp3813
a(S'brush'
p3814
S'your'
p3815
S'teeth'
p3816
tp3817
a(S'seeing'
p3818
S'breaking'
p3819
S'dawn'
p3820
tp3821
a(S'bucknell'
p3822
S'oregon'
p3823
S'state'
p3824
tp3825
a(S'bitch'
p3826
S'wear'
p3827
S'poncho'
p3828
tp3829
a(S'parks'
p3830
S'and'
p3831
S'rec'
p3832
tp3833
a(S'amp'
p3834
S'order'
p3835
S'svu'
p3836
tp3837
a(S'wonder'
p3838
S'if'
p3839
S'remembers'
p3840
tp3841
a(S'new'
p3842
S'years'
p3843
S'resolutions'
p3844
tp3845
a(S'greys'
p3846
S'anatomy'
p3847
S'when'
p3848
tp3849
a(S'a'
S'pumpkin'
p3850
S'patch'
p3851
tp3852
a(S'than'
p3853
S'an'
p3854
S'antelope'
p3855
tp3856
a(S'a'
S'pokemon'
p3857
S'master'
p3858
tp3859
a(S'contrary'
p3860
g955
g956
tp3861
a(S'home'
p3862
S'john'
p3863
S'boyd'
p3864
tp3865
a(S'disney'
p3866
S'half'
p3867
S'marathon'
p3868
tp3869
a(S'some'
p3870
S'otha'
p3871
S'shit'
p3872
tp3873
a(S'looks'
p3874
g3224
g3225
tp3875
a(S'book'
p3876
S'of'
p3877
S'mormon'
p3878
tp3879
a(S'hbd'
p3880
S'big'
p3881
S'bro'
p3882
tp3883
a(S'a'
S'michael'
p3884
S'kors'
p3885
tp3886
a(S'literally'
p3887
g400
g401
tp3888
a(S'unfollowing'
p3889
g1414
g1415
tp3890
a(g233
S'went'
p3891
S'shopping'
p3892
tp3893
a(S'biggest'
p3894
g2424
g2425
tp3895
a(S'take'
p3896
S'zayn'
p3897
S'bye'
p3898
tp3899
a(S'oh'
p3900
S'em'
p3901
S'gee'
p3902
tp3903
a(g2028
g2029
S'bar'
p3904
tp3905
a(S'whos'
p3906
S'looking'
p3907
S'forward'
p3908
tp3909
a(S'smells'
p3910
S'like'
p3911
S'teen'
p3912
tp3913
a(S'coconut'
p3914
S'oil'
p3915
S'its'
p3916
tp3917
a(S'keep'
p3918
S'us'
p3919
S'updated'
p3920
tp3921
a(S'eat'
p3922
S'ice'
p3923
S'cream'
p3924
tp3925
a(S'risk'
p3926
S'another'
p3927
S'goodbye'
p3928
tp3929
a(S'an'
p3930
S'unhealthy'
p3931
S'amount'
p3932
tp3933
a(g2577
g2578
S'to'
p3934
tp3935
a(S'my'
p3936
S'order'
p3937
S'receipt'
p3938
tp3939
a(S'swim'
p3940
S'swim'
p3941
S'swim'
p3942
tp3943
a(S'ha'
p3944
S'ha'
p3945
S'ha'
p3946
tp3947
a(S'big'
p3948
S'booty'
p3949
S'hoe'
p3950
tp3951
a(S'honey'
p3952
S'boo'
p3953
S'boo'
p3954
tp3955
a(S'ugly'
p3956
S'christmas'
p3957
S'sweater'
p3958
tp3959
a(S'vs'
p3960
S'fashion'
p3961
S'show'
p3962
tp3963
a(S'the'
p3964
S'united'
p3965
S'states'
p3966
tp3967
a(S'popped'
p3968
S'a'
S'molly'
p3969
tp3970
a(S'new'
p3971
S'years'
p3972
S'resolution'
p3973
tp3974
a(g3969
S'im'
p3975
S'sweatin'
p3976
tp3977
a(S'naps'
p3978
S'on'
p3979
S'naps'
p3980
tp3981
a(S'sense'
p3982
S'of'
p3983
S'humor'
p3984
tp3985
a(S'grinch'
p3986
S'stole'
p3987
S'christmas'
p3988
tp3989
a(S'blah'
p3990
S'blah'
p3991
S'blah'
p3992
tp3993
a(S'my'
p3994
g975
g976
tp3995
a(S'no'
p3996
S'shave'
p3997
S'november'
p3998
tp3999
a(S'american'
p4000
S'horror'
p4001
S'story'
p4002
tp4003
a(S'secret'
p4004
S'fashion'
p4005
S'show'
p4006
tp4007
aa(lp4008
(S'in'
p4009
S'lottery'
p4010
S'tickets'
p4011
tp4012
a(S'merry'
p4013
S'christmas'
p4014
S'merry'
p4015
tp4016
a(S'the'
p4017
S'comic'
p4018
S'relief'
p4019
tp4020
a(S'energy'
p4021
S'surrounding'
p4022
S'you'
p4023
tp4024
a(S'outside'
p4025
S'of'
p4026
S'woodburn'
p4027
tp4028
a(S'ya'
p4029
S'bish'
p4030
S'if'
p4031
tp4032
a(S'yell'
p4033
S'out'
p4034
S'cuh'
p4035
tp4036
a(S'an'
p4037
S'offensive'
p4038
S'award'
p4039
tp4040
a(S'my'
p4041
S'heart'
p4042
S'sparkle'
p4043
tp4044
a(S'duck'
p4045
S'dynasty'
p4046
S'is'
p4047
tp4048
a(S'a'
S'butterfly'
p4049
S'knife'
p4050
tp4051
a(S'brother'
p4052
S'run'
p4053
S'brother'
p4054
tp4055
a(S'jingle'
p4056
S'bell'
p4057
S'rock'
p4058
tp4059
a(S'they'
p4060
S'cost'
p4061
S'us'
p4062
tp4063
a(S'olive'
p4064
S'garden'
p4065
S''
tp4066
a(S'to'
p4067
S'youth'
p4068
S'lagoon'
p4069
tp4070
a(S'said'
p4071
S'assembly'
p4072
S'hall'
p4073
tp4074
a(S'iu'
p4075
S'beat'
p4076
S'unc'
p4077
tp4078
a(S'danny'
p4079
S'has'
p4080
S'gonorrhea'
p4081
tp4082
a(S'ive'
p4083
S'never'
p4084
S'understood'
p4085
tp4086
a(S'an'
p4087
S'egg'
p4088
S'roll'
p4089
tp4090
a(S'couple'
p4091
S'of'
p4092
S'surveys'
p4093
tp4094
a(S'iu'
p4095
S'tennis'
p4096
S'center'
p4097
tp4098
a(S'who'
p4099
S'actually'
p4100
S'uses'
p4101
tp4102
a(S'summer'
p4103
S'heights'
p4104
S'high'
p4105
tp4106
a(S'iu'
p4107
S'vs'
p4108
S'texas'
p4109
tp4110
a(S'heads'
p4111
S'and'
p4112
S'orange'
p4113
tp4114
a(S'study'
p4115
S'faded'
p4116
S'study'
p4117
tp4118
a(g4108
g4109
S'amp'
p4119
tp4120
a(S'courts'
p4121
S'with'
p4122
S'praise'
p4123
tp4124
a(S'elementary'
p4125
S'school'
p4126
S'shooting'
p4127
tp4128
a(S'knight'
p4129
S'rises'
p4130
S'is'
p4131
tp4132
a(S'a'
S'thousand'
p4133
S'miles'
p4134
tp4135
a(S'silver'
p4136
S'linings'
p4137
S'playbook'
p4138
tp4139
a(S'my'
p4140
S'add'
p4141
S'medicine'
p4142
tp4143
a(S'horoscope'
p4144
S'httptcovohtjtdx'
p4145
S'regardless'
p4146
tp4147
a(S'anyone'
p4148
S'sees'
p4149
S'today'
p4150
tp4151
a(S'paint'
p4152
S'crew'
p4153
S'is'
p4154
tp4155
a(S'drank'
p4156
S'faded'
p4157
S'drank'
p4158
tp4159
a(S'being'
p4160
S'serenaded'
p4161
S'by'
p4162
tp4163
a(S'fire'
p4164
S'and'
p4165
S'gasoline'
p4166
tp4167
a(S'four'
p4168
S'more'
p4169
S'sleeps'
p4170
tp4171
a(S'pretty'
p4172
S'close'
p4173
S'relationship'
p4174
tp4175
a(S'oh'
p4176
S'dear'
p4177
S'lord'
p4178
tp4179
a(S'dawn'
p4180
S'part'
p4181
S'two'
p4182
tp4183
a(S'angel'
p4184
S'sent'
p4185
S'from'
p4186
tp4187
a(S'jersey'
p4188
S'shore'
p4189
S'is'
p4190
tp4191
a(S'this'
p4192
S'computer'
p4193
S'lab'
p4194
tp4195
a(S'dropping'
p4196
S'an'
p4197
S'ice'
p4198
tp4199
a(S'bagel'
p4200
S'and'
p4201
S'deli'
p4202
tp4203
a(S'got'
p4204
S'an'
p4205
S'edgar'
p4206
tp4207
a(S'where'
p4208
S'ya'
p4209
S'headed'
p4210
tp4211
a(S'carrie'
p4212
S'underwood'
p4213
S'concert'
p4214
tp4215
a(S'x'
S'chief'
p4216
S'keef'
p4217
tp4218
a(S'peter'
p4219
S'and'
p4220
S'hanner'
p4221
tp4222
a(S'and'
p4223
S'peter'
p4224
S'personally'
p4225
tp4226
a(S'dom'
p4227
S'kennedy'
p4228
S''
tp4229
a(S'students'
p4230
S'fantasize'
p4231
S'about'
p4232
tp4233
a(S'at'
p4234
S'stir'
p4235
S'crazy'
p4236
tp4237
a(S'a'
S'fickle'
p4238
S'beast'
p4239
tp4240
a(S'sweats'
p4241
S'and'
p4242
S'hoodie'
p4243
tp4244
a(S'video'
p4245
S'kendrick'
p4246
S'lamar'
p4247
tp4248
a(S'lemons'
p4249
S''
S'katrimbl'
p4250
tp4251
a(S'semi'
p4252
S'formal'
p4253
S''
tp4254
a(S'loved'
p4255
S'every'
p4256
S'second'
p4257
tp4258
a(S'sandy'
p4259
S'hook'
p4260
S'elementary'
p4261
tp4262
a(S'a'
S'strip'
p4263
S'club'
p4264
tp4265
a(S'donation'
p4266
S'supporting'
p4267
S'childrens'
p4268
tp4269
a(S'whose'
p4270
S'idea'
p4271
S'was'
p4272
tp4273
a(S'x'
S'ti'
p4274
S'ft'
p4275
tp4276
a(S'on'
p4277
S'shipping'
p4278
S'wars'
p4279
tp4280
a(S''
S'action'
p4281
S'bronson'
p4282
tp4283
a(S'pour'
p4284
S'up'
p4285
S'drank'
p4286
tp4287
a(S'stairs'
p4288
S'of'
p4289
S'ballantine'
p4290
tp4291
a(S'clinomania'
p4292
S'describes'
p4293
S'the'
p4294
tp4295
a(S'art'
p4296
S'of'
p4297
S'flight'
p4298
tp4299
a(S'pounded'
p4300
S'so'
p4301
S'badly'
p4302
tp4303
a(S'red'
p4304
S'pale'
p4305
S'yellow'
p4306
tp4307
a(S'blaring'
p4308
S'love'
p4309
S'sosa'
p4310
tp4311
a(S'frog'
p4312
S'giggin'
p4313
S'goon'
p4314
tp4315
a(S'pi'
p4316
S'kappa'
p4317
S'phi'
p4318
tp4319
a(S'his'
p4320
S'second'
p4321
S'term'
p4322
tp4323
a(S'the'
p4324
S'civic'
p4325
S'center'
p4326
tp4327
a(S'on'
p4328
S'boats'
p4329
S'against'
p4330
tp4331
a(S'campbells'
p4332
S'skillet'
p4333
S'sauces'
p4334
tp4335
a(S'settling'
p4336
S'for'
p4337
S'less'
p4338
tp4339
a(S'break'
p4340
S'will'
p4341
S'consist'
p4342
tp4343
a(S'she'
p4344
S'order'
p4345
S'fish'
p4346
tp4347
a(S'nicki'
p4348
S'the'
p4349
S'nissan'
p4350
tp4351
a(S'taco'
p4352
S'bell'
p4353
S'run'
p4354
tp4355
a(S'a'
S'savannah'
p4356
S'cat'
p4357
tp4358
a(S'my'
p4359
S'main'
p4360
S'betch'
p4361
tp4362
a(S'far'
p4363
S'filling'
p4364
S'out'
p4365
tp4366
a(S'itweetfacts'
p4367
g4292
g4293
tp4368
a(S'lord'
p4369
S'call'
p4370
S'upon'
p4371
tp4372
a(S'growing'
p4373
S'up'
p4374
S'scares'
p4375
tp4376
a(S'the'
p4377
g4312
g4313
tp4378
a(S'high'
p4379
S'school'
p4380
S'musical'
p4381
tp4382
a(S'firecracker'
p4383
S'jump'
p4384
S'rope'
p4385
tp4386
a(S'peanut'
p4387
S'butter'
p4388
S'and'
p4389
tp4390
a(S'siriyou'
p4391
S'could'
p4392
S'say'
p4393
tp4394
a(S'leslie'
p4395
S'got'
p4396
S'mail'
p4397
tp4398
a(S'lucky'
p4399
S'lucky'
p4400
S'lucky'
p4401
tp4402
a(S'my'
p4403
S'aunts'
p4404
S'business'
p4405
tp4406
a(S'during'
p4407
S'hurricane'
p4408
S'sandy'
p4409
tp4410
a(S'change'
p4411
S'your'
p4412
S'clocks'
p4413
tp4414
a(S'puppies'
p4415
S'on'
p4416
S'puppies'
p4417
tp4418
a(S'kick'
p4419
S'their'
p4420
S'ass'
p4421
tp4422
a(S'todd'
p4423
S'and'
p4424
S'laura'
p4425
tp4426
a(S'ding'
p4427
S'ding'
p4428
S'ding'
p4429
tp4430
a(S'secure'
p4431
S'for'
p4432
S'longer'
p4433
tp4434
a(S'of'
p4435
S'electric'
p4436
S'sex'
p4437
tp4438
a(S'study'
p4439
S'study'
p4440
S'study'
p4441
tp4442
a(S'beat'
p4443
g4328
g4329
tp4444
a(S'ice'
p4445
S'cream'
p4446
S'cone'
p4447
tp4448
a(S'bright'
p4449
S'amp'
p4450
S'early'
p4451
tp4452
a(S'tornado'
p4453
S'or'
p4454
S'ju'
p4455
tp4456
a(S'aly'
p4457
S'amp'
p4458
S'simone'
p4459
tp4460
a(S'atoms'
p4461
S'of'
p4462
S'peace'
p4463
tp4464
a(S'your'
p4465
S'profile'
p4466
S'picture'
p4467
tp4468
a(S'by'
p4469
S'chief'
p4470
S'keef'
p4471
tp4472
a(S'networking'
p4473
S'trip'
p4474
S'through'
p4475
tp4476
a(S'yall'
p4477
S'wanna'
p4478
S'hear'
p4479
tp4480
a(S'all'
p4481
S'thy'
p4482
S'soul'
p4483
tp4484
a(S'soccer'
p4485
S'national'
p4486
S'champions'
p4487
tp4488
a(S'tory'
p4489
S'burch'
p4490
S'flats'
p4491
tp4492
a(S'between'
p4493
S'my'
p4494
S'toes'
p4495
tp4496
a(S'shaved'
p4497
S'off'
p4498
S'his'
p4499
tp4500
a(S'roundoff'
p4501
S'back'
p4502
S'handspring'
p4503
tp4504
a(S'out'
p4505
S'tyson'
p4506
S'bahrke'
p4507
tp4508
a(S'mans'
p4509
S'best'
p4510
S'friend'
p4511
tp4512
a(S'time'
p4513
S'since'
p4514
S'august'
p4515
tp4516
a(S'funniest'
p4517
S'thing'
p4518
S'ive'
p4519
tp4520
a(S'giving'
p4521
S'me'
p4522
S'anxiety'
p4523
tp4524
a(S'next'
p4525
S'few'
p4526
S'months'
p4527
tp4528
a(S'soccer'
p4529
S'national'
p4530
S'champs'
p4531
tp4532
a(S'wind'
p4533
S'if'
p4534
S'given'
p4535
tp4536
a(S'everlasting'
p4537
S'your'
p4538
S'light'
p4539
tp4540
a(S'win'
p4541
S'pacers'
p4542
S'win'
p4543
tp4544
a(S'a'
S'giant'
p4545
S'demon'
p4546
tp4547
a(S'meet'
p4548
S'cody'
p4549
S'zeller'
p4550
tp4551
a(S'pitchfork'
p4552
S'music'
p4553
S'festival'
p4554
tp4555
a(S'mean'
p4556
S'alot'
p4557
S'if'
p4558
tp4559
a(S'the'
p4560
S'mnf'
p4561
S'booth'
p4562
tp4563
a(S'awk'
p4564
S'moment'
p4565
S'when'
p4566
tp4567
a(S'space'
p4568
S'age'
p4569
S'pimpin'
p4570
tp4571
a(S'at'
p4572
S'brown'
p4573
S'county'
p4574
tp4575
a(S'nothing'
p4576
S'sexier'
p4577
S'than'
p4578
tp4579
a(S'mark'
p4580
S'wahlberg'
p4581
S''
tp4582
a(S'perfectly'
p4583
S'fine'
p4584
S'with'
p4585
tp4586
a(S'wasted'
p4587
S'immediately'
p4588
S'that'
p4589
tp4590
a(S'feast'
p4591
S'bakery'
p4592
S'cafe'
p4593
tp4594
a(S'madden'
p4595
S'game'
p4596
S'name'
p4597
tp4598
a(S'lance'
p4599
S'armstrong'
p4600
S'interview'
p4601
tp4602
a(S'set'
p4603
S'an'
p4604
S'alarm'
p4605
tp4606
a(g4459
S'tailgating'
p4607
S'show'
p4608
tp4609
a(S'dying'
p4610
S'of'
p4611
S'thirst'
p4612
tp4613
a(S'feet'
p4614
S'hurt'
p4615
S'like'
p4616
tp4617
a(S'in'
p4618
S'east'
p4619
S'hanover'
p4620
tp4621
a(S'ch'
p4622
S''
S'p'
tp4623
a(S'shell'
p4624
S'tear'
p4625
S'a'
tp4626
a(S'pop'
p4627
S'culture'
p4628
S'class'
p4629
tp4630
a(S'the'
p4631
S'soft'
p4632
S'glow'
p4633
tp4634
a(S'omg'
p4635
S'omg'
p4636
S'omg'
p4637
tp4638
a(S'couldnt'
p4639
S'be'
p4640
S'happier'
p4641
tp4642
a(S'being'
p4643
S'woken'
p4644
S'up'
p4645
tp4646
a(S'money'
p4647
S'money'
p4648
S'money'
p4649
tp4650
a(S'chanting'
p4651
S'iu'
p4652
S'sucks'
p4653
tp4654
a(S'nuts'
p4655
S'and'
p4656
S'bolts'
p4657
tp4658
a(S'pacers'
p4659
g4541
g4542
tp4660
a(S'ra'
p4661
S'ra'
p4662
S'ra'
p4663
tp4664
a(S'and'
p4665
S'jelly'
p4666
S'sandwiches'
p4667
tp4668
a(S'critical'
p4669
S'book'
p4670
S'review'
p4671
tp4672
a(S'that'
p4673
S'seventies'
p4674
S'show'
p4675
tp4676
a(S'an'
p4677
S'nsync'
p4678
S'song'
p4679
tp4680
a(S'alarm'
p4681
S'goes'
p4682
S'off'
p4683
tp4684
a(S'hands'
p4685
S'you'
p4686
g4249
tp4687
a(S'evening'
p4688
S'class'
p4689
S'cancelled'
p4690
tp4691
a(S'ding'
p4692
S'dingy'
p4693
S'dingding'
p4694
tp4695
a(S'the'
p4696
S'jonas'
p4697
S'brothers'
p4698
tp4699
a(S'an'
p4700
S'olympic'
p4701
S'sport'
p4702
tp4703
a(S'in'
p4704
S'south'
p4705
S'africa'
p4706
tp4707
a(S'homeless'
p4708
S'meth'
p4709
S'addict'
p4710
tp4711
a(S'them'
p4712
S'lil'
p4713
S'wolverines'
p4714
tp4715
a(S'physics'
p4716
S'prof'
p4717
S'is'
p4718
tp4719
a(S'sea'
p4720
S'foam'
p4721
S'green'
p4722
tp4723
a(S'ft'
p4724
S'mike'
p4725
S'posner'
p4726
tp4727
a(S'bucks'
p4728
S'to'
p4729
S'httptcocpgsnx'
p4730
tp4731
a(S''
S'cabin'
p4732
S'fever'
p4733
tp4734
a(S'play'
p4735
S'video'
p4736
S'games'
p4737
tp4738
a(S'gates'
p4739
S'with'
p4740
S'thanksgiving'
p4741
tp4742
a(S'cs'
p4743
S'get'
p4744
S'degrees'
p4745
tp4746
a(S'areliterally'
p4747
S'cannot'
p4748
S'thank'
p4749
tp4750
a(S'giving'
p4751
S'away'
p4752
S'free'
p4753
tp4754
a(S'goal'
p4755
S'for'
p4756
S'pato'
p4757
tp4758
a(S'nice'
p4759
S'knowing'
p4760
S'ya'
p4761
tp4762
a(S'hoes'
p4763
S'on'
p4764
S'hoes'
p4765
tp4766
a(S'five'
p4767
S'hours'
p4768
S'ago'
p4769
tp4770
a(S'want'
p4771
S'penn'
p4772
S'station'
p4773
tp4774
a(S'gears'
p4775
S'of'
p4776
S'war'
p4777
tp4778
a(S'the'
p4779
S'polar'
p4780
S'express'
p4781
tp4782
a(g4371
S'his'
p4783
S'name'
p4784
tp4785
a(S'hum'
p4786
S'hum'
p4787
S'hum'
p4788
tp4789
a(S'said'
p4790
S'thou'
p4791
S'shalt'
p4792
tp4793
a(S'guy'
p4794
S'walking'
p4795
S'passed'
p4796
tp4797
a(S'wound'
p4798
S'heals'
p4799
S'but'
p4800
tp4801
a(S'will'
p4802
S'forever'
p4803
S'remind'
p4804
tp4805
a(g4034
g4035
S'cuh'
p4806
tp4807
a(S'rain'
p4808
S'in'
p4809
S'southern'
p4810
tp4811
a(S'sell'
p4812
S'our'
p4813
S'experiences'
p4814
tp4815
a(S'borne'
p4816
S'back'
p4817
S'ceaselessly'
p4818
tp4819
a(S'goal'
p4820
S'line'
p4821
S'stands'
p4822
tp4823
a(S'contain'
p4824
S'my'
p4825
S'excitement'
p4826
tp4827
a(S'more'
p4828
S'sleeps'
p4829
S'until'
p4830
tp4831
a(S'its'
p4832
S'papa'
p4833
S'chula'
p4834
tp4835
a(S'see'
p4836
S'safe'
p4837
S'haven'
p4838
tp4839
a(S'we'
p4840
S'want'
p4841
S'prenup'
p4842
tp4843
a(S'and'
p4844
g4580
g4581
tp4845
a(S'answering'
p4846
S'her'
p4847
S'phone'
p4848
tp4849
a(S'da'
p4850
S'da'
p4851
S'da'
p4852
tp4853
a(S'your'
p4854
S'friends'
p4855
g4747
tp4856
a(S'glass'
p4857
S'of'
p4858
S'pinot'
p4859
tp4860
a(S'tyler'
p4861
S'the'
p4862
S'creator'
p4863
tp4864
a(S'on'
p4865
S'national'
p4866
S'television'
p4867
tp4868
a(S'an'
p4869
S'evans'
p4870
S'scholar'
p4871
tp4872
a(S'theres'
p4873
g4576
g4577
tp4874
a(S'those'
p4875
S'moods'
p4876
S'where'
p4877
tp4878
a(S'watch'
p4879
S'criminal'
p4880
S'minds'
p4881
tp4882
a(S'lifes'
p4883
S'a'
S'beach'
p4884
tp4885
a(S'got'
p4886
S'an'
p4887
S'autographed'
p4888
tp4889
a(S'lot'
p4890
S'harder'
p4891
S'than'
p4892
tp4893
a(S'granny'
p4894
S'woke'
p4895
S'me'
p4896
tp4897
a(S'beat'
p4898
S'that'
p4899
S'httptcowkvkzy'
p4900
tp4901
a(S'wins'
p4902
S'vs'
p4903
S'happened'
p4904
tp4905
a(g4246
g4247
S''
tp4906
a(S'burning'
p4907
S'shit'
p4908
S'down'
p4909
tp4910
a(S'juicy'
p4911
S'j'
S'amp'
p4912
tp4913
a(S'drink'
p4914
S'n'
S'drive'
p4915
tp4916
a(g4546
S'monkey'
p4917
S'in'
p4918
tp4919
a(S'a'
S'power'
p4920
S'outage'
p4921
tp4922
a(S'chucks'
p4923
S'new'
p4924
S'girlfriend'
p4925
tp4926
a(S'photo'
p4927
S'assembly'
p4928
S'hall'
p4929
tp4930
a(S'absolutely'
p4931
S'raped'
p4932
S'rt'
p4933
tp4934
a(S'him'
p4935
g4505
g4506
tp4936
a(S'a'
S'possible'
p4937
S'internship'
p4938
tp4939
a(S'proof'
p4940
S'this'
p4941
S'exists'
p4942
tp4943
a(S'an'
p4944
S'empty'
p4945
S'stomach'
p4946
tp4947
a(S'hath'
p4948
S'chosen'
p4949
S'the'
p4950
tp4951
a(S'the'
p4952
S'mrcsf'
p4953
S'posters'
p4954
tp4955
a(S'snapped'
p4956
S'a'
S'photo'
p4957
tp4958
a(S'big'
p4959
S'ten'
p4960
S'whos'
p4961
tp4962
a(S'puts'
p4963
S'a'
S'damper'
p4964
tp4965
a(S'country'
p4966
S'mega'
p4967
S'ticket'
p4968
tp4969
a(S'child'
p4970
S'see'
p4971
S'heavens'
p4972
tp4973
a(S'emailing'
p4974
S'with'
p4975
S'mr'
p4976
tp4977
a(S'miranda'
p4978
S'and'
p4979
S'blake'
p4980
tp4981
a(S'filling'
p4982
S'out'
p4983
S'surveys'
p4984
tp4985
a(S'hall'
p4986
S'of'
p4987
S'famer'
p4988
tp4989
a(S'one'
p4990
S'trick'
p4991
S'pony'
p4992
tp4993
a(S'give'
p4994
S'tom'
p4995
S'crean'
p4996
tp4997
a(S'such'
p4998
S'an'
p4999
S'asshole'
p5000
tp5001
a(S'roll'
p5002
S'my'
p5003
S'windows'
p5004
tp5005
a(S'new'
p5006
S'james'
p5007
S'bond'
p5008
tp5009
a(S'benjamin'
p5010
S'francis'
p5011
S'leftwich'
p5012
tp5013
a(S'rows'
p5014
S'of'
p5015
S'seats'
p5016
tp5017
a(S'on'
p5018
S'both'
p5019
S'sides'
p5020
tp5021
a(S'call'
p5022
S'fair'
p5023
S'catch'
p5024
tp5025
a(S'pulling'
p5026
S'the'
p5027
S'blankets'
p5028
tp5029
a(S'tornado'
p5030
S'flew'
p5031
S'around'
p5032
tp5033
a(S'formerly'
p5034
S'known'
p5035
S'as'
p5036
tp5037
a(S'notread'
p5038
S'love'
p5039
S'horoscope'
p5040
tp5041
a(S'lips'
p5042
S'they'
p5043
S'burn'
p5044
tp5045
a(S'tragedy'
p5046
S'everyone'
p5047
S'gedy'
p5048
tp5049
a(S'munga'
p5050
S'munga'
p5051
S'munga'
p5052
tp5053
a(S'to'
p5054
S'grace'
p5055
S'television'
p5056
tp5057
a(S'fucking'
p5058
S'hate'
p5059
g4533
tp5060
a(g4141
g4142
S'just'
p5061
tp5062
a(S'that'
p5063
g4564
g4565
tp5064
a(S'to'
p5065
S'carve'
p5066
S'pumpkins'
p5067
tp5068
a(S'registering'
p5069
S'for'
p5070
S'classes'
p5071
tp5072
a(S'my'
p5073
g4627
g4628
tp5074
a(S'hood'
p5075
S'rat'
p5076
S'things'
p5077
tp5078
a(S'in'
p5079
S'wilkie'
p5080
S'center'
p5081
tp5082
a(g4278
g4279
S'is'
p5083
tp5084
a(S'dundun'
p5085
S'dundun'
p5086
S'dundun'
p5087
tp5088
a(S'met'
p5089
S'your'
p5090
S'mother'
p5091
tp5092
a(S'berries'
p5093
S'and'
p5094
S'cream'
p5095
tp5096
a(S'iu'
p5097
g4529
g4530
tp5098
a(S'can'
p5099
S'send'
p5100
S'donations'
p5101
tp5102
a(S'bone'
p5103
S'cancer'
p5104
S'and'
p5105
tp5106
a(S'tiger'
p5107
S'and'
p5108
S'rory'
p5109
tp5110
a(g4313
g4314
S'squad'
p5111
tp5112
a(S'mayan'
p5113
S'calendar'
p5114
S'ends'
p5115
tp5116
a(S'step'
p5117
S'is'
p5118
S'admitting'
p5119
tp5120
a(S'noodles'
p5121
S'and'
p5122
S'company'
p5123
tp5124
a(S'exact'
p5125
S'same'
p5126
S'thing'
p5127
tp5128
a(S'making'
p5129
S'an'
p5130
S'appearance'
p5131
tp5132
a(S'alright'
p5133
S'done'
p5134
S'deal'
p5135
tp5136
a(S'lawd'
p5137
S'thats'
p5138
S'heavy'
p5139
tp5140
a(S'the'
p5141
g4798
g4799
tp5142
a(S'sisters'
p5143
S'r'
S'here'
p5144
tp5145
a(S'derek'
p5146
S'elston'
p5147
S'is'
p5148
tp5149
a(S'chuck'
p5150
S'e'
S'cheese'
p5151
tp5152
a(g4305
g4306
g4720
tp5153
a(S'fa'
p5154
S'la'
p5155
S'la'
p5156
tp5157
a(S'lt'
p5158
S'lt'
p5159
S'ay'
p5160
tp5161
a(S'iu'
p5162
S'vs'
p5163
S'uk'
p5164
tp5165
a(S'text'
p5166
S'each'
p5167
S'other'
p5168
tp5169
a(S'north'
p5170
S'parking'
p5171
S'lot'
p5172
tp5173
a(S'the'
p5174
S'lowest'
p5175
S'level'
p5176
tp5177
a(S'hahahahha'
p5178
S'funniest'
p5179
S'thing'
p5180
tp5181
a(S'keep'
p5182
S'looking'
p5183
S'forward'
p5184
tp5185
a(S'and'
p5186
S'whatsoever'
p5187
S'ye'
p5188
tp5189
a(g4957
S'of'
p5190
g4332
tp5191
a(S''
S'norte'
p5192
S'dame'
p5193
tp5194
a(S'aka'
p5195
S'randall'
p5196
S'floyd'
p5197
tp5198
a(S'black'
p5199
S'ops'
p5200
S'ii'
p5201
tp5202
a(S'candy'
p5203
S'stripe'
p5204
S'pants'
p5205
tp5206
a(S'watching'
p5207
S'blue'
p5208
S'mountain'
p5209
tp5210
a(S'a'
S'news'
p5211
S'crews'
p5212
tp5213
a(S'thou'
p5214
S'shalt'
p5215
S'love'
p5216
tp5217
a(S'youre'
p5218
S'interested'
p5219
S'dm'
p5220
tp5221
a(S'qb'
p5222
S'andrew'
p5223
S'luck'
p5224
tp5225
a(S'bones'
p5226
S'connected'
p5227
S'to'
p5228
tp5229
a(S'vs'
p5230
S'north'
p5231
S'carolina'
p5232
tp5233
a(S'fastest'
p5234
S'who'
p5235
S'gets'
p5236
tp5237
a(S'baby'
p5238
S'bibs'
p5239
S'best'
p5240
tp5241
a(g5211
g5212
S'presence'
p5242
tp5243
a(g4081
S'feel'
p5244
S'better'
p5245
tp5246
a(S'lack'
p5247
S'of'
p5248
S'faith'
p5249
tp5250
a(S'an'
p5251
S'acoustic'
p5252
S'version'
p5253
tp5254
a(S'bankers'
p5255
S'life'
p5256
S'fieldhouse'
p5257
tp5258
a(S'the'
p5259
S'attention'
p5260
S'span'
p5261
tp5262
a(S'those'
p5263
S'moments'
p5264
S'where'
p5265
tp5266
a(S'cause'
p5267
S'a'
S'ruckus'
p5268
tp5269
a(S'getting'
p5270
g4300
g4301
tp5271
a(S'funniest'
p5272
S'picture'
p5273
S'ive'
p5274
tp5275
a(S'run'
p5276
g4052
g4053
tp5277
a(S'dynamite'
p5278
S'drinking'
p5279
S'game'
p5280
tp5281
a(S'got'
p5282
S'general'
p5283
S'admission'
p5284
tp5285
a(S'help'
p5286
S'raise'
p5287
S'money'
p5288
tp5289
a(S'new'
p5290
S'justin'
p5291
S'timberlake'
p5292
tp5293
a(S'act'
p5294
S'of'
p5295
S'valor'
p5296
tp5297
a(S'social'
p5298
S'media'
p5299
S'is'
p5300
tp5301
a(S'ooh'
p5302
S'we'
p5303
S'bundled'
p5304
tp5305
a(S'nchs'
p5306
S'varsity'
p5307
S'cheer'
p5308
tp5309
a(S'tall'
p5310
S'bridge'
p5311
S'now'
p5312
tp5313
a(S'is'
p5314
S'elected'
p5315
S'president'
p5316
tp5317
a(g4632
g4633
g4435
tp5318
a(S'finale'
p5319
S'of'
p5320
S'gossip'
p5321
tp5322
a(S'diagnosed'
p5323
S'with'
p5324
g5103
tp5325
a(S'taking'
p5326
S'some'
p5327
S'surveys'
p5328
tp5329
a(S'the'
p5330
S'ukranian'
p5331
S'genocide'
p5332
tp5333
a(S'spell'
p5334
g5046
g5047
tp5335
a(S'gucci'
p5336
S'mane'
p5337
S''
tp5338
a(S'high'
p5339
S'kid'
p5340
S'porn'
p5341
tp5342
a(S'white'
p5343
S'ford'
p5344
S'taurus'
p5345
tp5346
a(S'rains'
p5347
S'it'
p5348
S'pours'
p5349
tp5350
a(S'father'
p5351
S'like'
p5352
S'son'
p5353
tp5354
a(S'with'
p5355
S'muh'
p5356
S'girlz'
p5357
tp5358
a(S'schedule'
p5359
S'next'
p5360
S'semester'
p5361
tp5362
a(S'a'
S'criminal'
p5363
S'justice'
p5364
tp5365
a(S'mens'
p5366
S'basketball'
p5367
S'practice'
p5368
tp5369
a(S'locks'
p5370
S'in'
p5371
S'honor'
p5372
tp5373
a(S'if'
p5374
S'anyones'
p5375
S'looking'
p5376
tp5377
a(S'chief'
p5378
S'keef'
p5379
S'actually'
p5380
tp5381
a(S'deshaun'
p5382
S'thomas'
p5383
S'is'
p5384
tp5385
a(g4329
g4330
S'the'
p5386
tp5387
a(S'boo'
p5388
S'boos'
p5389
S'and'
p5390
tp5391
a(S'slightly'
p5392
S'obsessed'
p5393
S'with'
p5394
tp5395
a(S'when'
p5396
S'tornado'
p5397
S'sirens'
p5398
tp5399
a(S'andread'
p5400
S'love'
p5401
S'horoscope'
p5402
tp5403
a(S'free'
p5404
S'coupon'
p5405
S'for'
p5406
tp5407
a(S'keep'
p5408
S'me'
p5409
S'updated'
p5410
tp5411
a(S'anyone'
p5412
S'else'
p5413
S'notice'
p5414
tp5415
a(S'jes'
p5416
S'wilson'
p5417
S'task'
p5418
tp5419
a(S'the'
p5420
S'krusty'
p5421
S'krab'
p5422
tp5423
a(S'bleh'
p5424
S'bleh'
p5425
S'bleh'
p5426
tp5427
a(S'check'
p5428
S'your'
p5429
S'fb'
p5430
tp5431
a(S'does'
p5432
S'anyone'
p5433
S'else'
p5434
tp5435
a(S'mentionto'
p5436
S'your'
p5437
S'friend'
p5438
tp5439
a(S''
S'joey'
p5440
S'bada'
p5441
tp5442
a(S'full'
p5443
S'plates'
p5444
S'of'
p5445
tp5446
a(S'lady'
p5447
S'sitting'
p5448
S'next'
p5449
tp5450
a(S'of'
p5451
S'purdues'
p5452
g4902
tp5453
a(S'pie'
p5454
S'for'
p5455
S'breakfast'
p5456
tp5457
a(g4333
g4334
S'take'
p5458
tp5459
a(S'cock'
p5460
S'ill'
p5461
S'murder'
p5462
tp5463
a(S''
S'bruno'
p5464
S'mars'
p5465
tp5466
a(S'lordy'
p5467
S'lordy'
p5468
S'lordy'
p5469
tp5470
a(S'shorty'
p5471
S'award'
p5472
S'in'
p5473
tp5474
a(S'hanner'
p5475
S'and'
p5476
S'jurkin'
p5477
tp5478
a(S'bawk'
p5479
S'bawk'
p5480
S'chicken'
p5481
tp5482
a(S'media'
p5483
S'didnt'
p5484
S'exist'
p5485
tp5486
a(S'my'
p5487
g5388
g5389
tp5488
a(S'ray'
p5489
S'lewis'
p5490
S'last'
p5491
tp5492
a(g4185
g4186
S'heaven'
p5493
tp5494
a(S'coach'
p5495
S'tubby'
p5496
S'smith'
p5497
tp5498
a(S'free'
p5499
S'throw'
p5500
S'line'
p5501
tp5502
a(S'gonna'
p5503
S'make'
p5504
S'polsy'
p5505
tp5506
a(g5440
g5441
S''
tp5507
a(S'in'
p5508
S'pre'
p5509
S'calc'
p5510
tp5511
a(S'hills'
p5512
S'mall'
p5513
S'is'
p5514
tp5515
a(S'signed'
p5516
S'our'
p5517
S'lease'
p5518
tp5519
a(S'reunion'
p5520
S'needed'
p5521
S'asap'
p5522
tp5523
a(S'white'
p5524
S'elephant'
p5525
S'gift'
p5526
tp5527
a(S'dented'
p5528
S'white'
p5529
S'ford'
p5530
tp5531
a(S'earn'
p5532
S'my'
p5533
S'memory'
p5534
tp5535
a(S'poptarts'
p5536
S'on'
p5537
S'poptarts'
p5538
tp5539
a(S'cool'
p5540
S'beverage'
p5541
S'everything'
p5542
tp5543
a(g4975
g4976
S'campbell'
p5544
tp5545
a(S'debating'
p5546
S'on'
p5547
S'whether'
p5548
tp5549
a(S'guess'
p5550
S'ill'
p5551
S'settle'
p5552
tp5553
a(S'hum'
p5554
S'a'
S'prius'
p5555
tp5556
a(S'hate'
p5557
S'joe'
p5558
S'bidens'
p5559
tp5560
a(S'robbie'
p5561
g4277
g4278
tp5562
a(S'purdue'
p5563
S'grad'
p5564
S'off'
p5565
tp5566
a(S'saints'
p5567
S'didnt'
p5568
S'make'
p5569
tp5570
a(S'dad'
p5571
g4497
g4498
tp5572
a(S'forrest'
p5573
S'gump'
p5574
S'frank'
p5575
tp5576
a(S'libra'
p5577
S'httptcoumrsq'
p5578
S'i'
tp5579
a(S'joey'
p5580
S'bada'
p5581
S'is'
p5582
tp5583
a(S'an'
p5584
S'understatement'
p5585
S'oh'
p5586
tp5587
a(S'dan'
p5588
S'roll'
p5589
S'football'
p5590
tp5591
a(S'nick'
p5592
S'saban'
p5593
S'is'
p5594
tp5595
a(S'tim'
p5596
S'capstraw'
p5597
S'on'
p5598
tp5599
a(S'pro'
p5600
S'letarians'
p5601
S''
tp5602
a(S'safe'
p5603
S'travels'
p5604
S'to'
p5605
tp5606
a(S'give'
p5607
S'thanks'
p5608
S'unto'
p5609
tp5610
a(g4113
g5370
g5371
tp5611
a(g4625
S'a'
S'hole'
p5612
tp5613
a(S'york'
p5614
S'city'
p5615
S'for'
p5616
tp5617
a(S'nah'
p5618
S'nah'
p5619
S'nah'
p5620
tp5621
a(S'ft'
p5622
S'riff'
p5623
S'raff'
p5624
tp5625
a(S'the'
p5626
S'greek'
p5627
S'system'
p5628
tp5629
a(g4260
g4261
S'school'
p5630
tp5631
a(S'amazed'
p5632
S'by'
p5633
S'lonestar'
p5634
tp5635
a(S'c'
S'u'
S'l'
tp5636
a(S'ft'
p5637
g4911
S'j'
tp5638
a(g4325
g4326
S'or'
p5639
tp5640
a(S'the'
p5641
S'security'
p5642
S'system'
p5643
tp5644
a(S'usually'
p5645
S'doesnt'
p5646
g4808
tp5647
a(S'cups'
p5648
S'of'
p5649
S'coffee'
p5650
tp5651
a(S'wholelatta'
p5652
S'ice'
p5653
S''
tp5654
a(S'your'
p5655
S'twit'
p5656
S'pic'
p5657
tp5658
a(S''
S'ryshon'
p5659
S'jones'
p5660
tp5661
a(S'any'
p5662
S'human'
p5663
S'being'
p5664
tp5665
a(S''
S'chainz'
p5666
S'frank'
p5667
tp5668
a(S'falling'
p5669
S'asleep'
p5670
S'tonight'
p5671
tp5672
a(S'michelles'
p5673
S'gettin'
p5674
S'the'
p5675
tp5676
a(S'like'
p5677
S'donkey'
p5678
S'kong'
p5679
tp5680
a(S'university'
p5681
S''
S'wisco'
p5682
tp5683
a(S'dragged'
p5684
S'me'
p5685
S'away'
p5686
tp5687
a(S'would'
p5688
S'brutally'
p5689
S'murder'
p5690
tp5691
a(S'plane'
p5692
S'ride'
p5693
S'home'
p5694
tp5695
a(S'to'
p5696
S'mickey'
p5697
S'ds'
p5698
tp5699
a(S'my'
p5700
S'bucket'
p5701
S'list'
p5702
tp5703
a(S'jerseys'
p5704
S'are'
p5705
S'sick'
p5706
tp5707
a(S'drinking'
p5708
S'hot'
p5709
S'chocolate'
p5710
tp5711
a(S'wayer'
p5712
S'amp'
p5713
S'zeller'
p5714
tp5715
a(S'phat'
p5716
S'farm'
p5717
S'back'
p5718
tp5719
a(S'laughing'
p5720
S'out'
p5721
S'loud'
p5722
tp5723
a(g5397
g5398
S'go'
p5724
tp5725
a(S'till'
p5726
S'tip'
p5727
S'off'
p5728
tp5729
a(S''
S'woo'
p5730
S'hoo'
p5731
tp5732
a(S'cookmake'
p5733
S'me'
p5734
S'breakfast'
p5735
tp5736
a(S'both'
p5737
S'indiana'
p5738
S'teams'
p5739
tp5740
a(S'student'
p5741
S'run'
p5742
S'radio'
p5743
tp5744
a(g5160
g5733
g5734
tp5745
a(S'rt'
p5746
S'tornaaaaado'
p5747
S'hoes'
p5748
tp5749
a(S'gossip'
p5750
S'girl'
p5751
S'xoxo'
p5752
tp5753
a(S'weeks'
p5754
S'till'
p5755
S'thanksgiving'
p5756
tp5757
a(g4405
S'will'
p5758
S'donate'
p5759
tp5760
a(S'project'
p5761
S'check'
p5762
S'it'
p5763
tp5764
a(S'which'
p5765
S'hate'
p5766
S'youbless'
p5767
tp5768
a(S'flowers'
p5769
S'for'
p5770
S'valentines'
p5771
tp5772
a(S'new'
p5773
S'mac'
p5774
S'miller'
p5775
tp5776
a(S'bark'
p5777
S'bark'
p5778
S'bark'
p5779
tp5780
a(S'to'
p5781
S'staples'
p5782
S'center'
p5783
tp5784
a(S'blonde'
p5785
S'definitely'
p5786
S'has'
p5787
tp5788
a(S'black'
p5789
S'peplum'
p5790
S'top'
p5791
tp5792
a(S'excessive'
p5793
S'desire'
p5794
S'to'
p5795
tp5796
a(S'back'
p5797
S'bruh'
p5798
S'bruh'
p5799
tp5800
a(g4293
g4294
g5793
tp5801
a(S'school'
p5802
S'gtyour'
p5803
S'school'
p5804
tp5805
a(S'with'
p5806
S'jimmy'
p5807
S'fallon'
p5808
tp5809
a(S'carve'
p5810
S'pumpkins'
p5811
S'this'
p5812
tp5813
a(g4112
g4113
g5370
tp5814
a(S'hours'
p5815
S'till'
p5816
S'tipoff'
p5817
tp5818
a(S'hear'
p5819
g4056
g4057
tp5820
a(S'women'
p5821
S'lie'
p5822
S'men'
p5823
tp5824
a(g5040
S'here'
p5825
S'httptcovohtjtdx'
p5826
tp5827
a(S'margaritas'
p5828
S'at'
p5829
S'hacienda'
p5830
tp5831
a(S'festival'
p5832
S'of'
p5833
S'lights'
p5834
tp5835
a(S'iu'
p5836
S'v'
S'michigan'
p5837
tp5838
a(S'gangnam'
p5839
S'style'
p5840
S'just'
p5841
tp5842
a(g4174
S'with'
p5843
g4391
tp5844
a(S'suck'
p5845
S'my'
p5846
g5460
tp5847
a(S'see'
p5848
S'ray'
p5849
S'lewis'
p5850
tp5851
a(S'the'
p5852
S'coachs'
p5853
S'office'
p5854
tp5855
a(S'butter'
p5856
g4665
g4666
tp5857
a(S'iu'
p5858
S'lovelies'
p5859
S'today'
p5860
tp5861
a(S'cheering'
p5862
S'for'
p5863
S'duke'
p5864
tp5865
a(S'goes'
p5866
S'both'
p5867
S'ways'
p5868
tp5869
a(g4550
S'help'
p5870
S'him'
p5871
tp5872
a(S'will'
p5873
S'run'
p5874
S'onto'
p5875
tp5876
a(g5822
g5823
S'lie'
p5877
tp5878
a(S'this'
p5879
S'bio'
p5880
S'exam'
p5881
tp5882
a(S'hopes'
p5883
S'and'
p5884
S'dreams'
p5885
tp5886
a(S'buffalo'
p5887
S'wild'
p5888
S'wings'
p5889
tp5890
a(S'for'
p5891
S'xmas'
p5892
S'eve'
p5893
tp5894
a(S'the'
p5895
g5113
g5114
tp5896
a(S'bahrke'
p5897
S'was'
p5898
S'diagnosed'
p5899
tp5900
a(S'rt'
p5901
S'christina'
p5902
S'aguilera'
p5903
tp5904
a(g4109
g4119
S'michigan'
p5905
tp5906
a(S'minnesota'
p5907
S'head'
p5908
g5495
tp5909
a(S'for'
p5910
S'libra'
p5911
S'httptcoumrsq'
p5912
tp5913
a(S'missed'
p5914
S'free'
p5915
S'throws'
p5916
tp5917
a(S'niece'
p5918
S'and'
p5919
S'nephew'
p5920
tp5921
a(S'at'
p5922
S'hoosier'
p5923
S'hysteria'
p5924
tp5925
a(S'time'
p5926
S'since'
p5927
S'nam'
p5928
tp5929
a(S'twit'
p5930
S'pic'
p5931
S''
tp5932
a(S'phi'
p5933
S'delt'
p5934
S'is'
p5935
tp5936
a(S'childrens'
p5937
S'hospital'
p5938
S'httptcodhima'
p5939
tp5940
a(S'merry'
p5941
S'christmas'
p5942
S'followers'
p5943
tp5944
a(S'so'
p5945
g4363
g4364
tp5946
a(S'tim'
p5947
S'riggins'
p5948
S''
tp5949
a(S'kobe'
p5950
S'and'
p5951
S'lebron'
p5952
tp5953
a(S'the'
p5954
S'fortune'
p5955
S'cookie'
p5956
tp5957
a(S'reality'
p5958
S'tv'
p5959
S'star'
p5960
tp5961
a(S'water'
p5962
S'beside'
p5963
S'my'
p5964
tp5965
a(S'a'
S'networking'
p5966
S'trip'
p5967
tp5968
a(S'in'
p5969
S'harry'
p5970
S'potter'
p5971
tp5972
a(S'that'
p5973
S'luke'
p5974
S'bryan'
p5975
tp5976
a(S'issue'
p5977
S'at'
p5978
S'hand'
p5979
tp5980
a(S'stressed'
p5981
S'stressed'
p5982
S'stressed'
p5983
tp5984
a(g4035
g4806
S'you'
p5985
tp5986
a(S'beg'
p5987
S'to'
p5988
S'differ'
p5989
tp5990
a(S'bon'
p5991
S'iver'
p5992
S'as'
p5993
tp5994
a(S'a'
S'daily'
p5995
S'basis'
p5996
tp5997
a(S'salvation'
p5998
S'with'
p5999
S'fear'
p6000
tp6001
a(S'a'
S'lovehate'
p6002
S'relationship'
p6003
tp6004
a(S'the'
p6005
S'victorias'
p6006
S'secret'
p6007
tp6008
a(S'nets'
p6009
S'color'
p6010
S'commentator'
p6011
tp6012
a(S'nothings'
p6013
S'gonna'
p6014
S'change'
p6015
tp6016
a(S'bitch'
p6017
S'bitch'
p6018
S'bitch'
p6019
tp6020
a(S'yoshi'
p6021
S'the'
p6022
S'naked'
p6023
tp6024
a(g5066
g5067
S''
tp6025
a(S'with'
p6026
S'bone'
p6027
S'cancer'
p6028
tp6029
a(S'th'
p6030
S'grader'
p6031
S'from'
p6032
tp6033
a(S'jalen'
p6034
S'rose'
p6035
S'is'
p6036
tp6037
a(g5386
S'current'
p6038
g4816
tp6039
a(S'this'
p6040
S'keha'
p6041
S'album'
p6042
tp6043
a(S's'
S'snap'
p6044
S'chat'
p6045
tp6046
a(S'place'
p6047
S'id'
p6048
S'rather'
p6049
tp6050
a(g4788
S'hum'
p6051
S'lets'
p6052
tp6053
a(S'cold'
p6054
S'ooh'
p6055
g5302
tp6056
a(S'tv'
p6057
S'shows'
p6058
S'now'
p6059
tp6060
a(S'a'
S'tornado'
p6061
S'warning'
p6062
tp6063
a(S'for'
p6064
S'christs'
p6065
S'sake'
p6066
tp6067
a(S'long'
p6068
S'car'
p6069
S'rides'
p6070
tp6071
a(S'dust'
p6072
S'we'
p6073
S'settle'
p6074
tp6075
a(S'god'
p6076
g4948
g4949
tp6077
a(S'x'
S'lil'
p6078
S'wayne'
p6079
tp6080
a(S'mens'
p6081
g4485
g4486
tp6082
a(S'justin'
p6083
S'bieber'
p6084
S'perfume'
p6085
tp6086
a(S'warm'
p6087
S'and'
p6088
S'cozy'
p6089
tp6090
a(S'face'
p6091
S'it'
p6092
S'embrace'
p6093
tp6094
a(S'bonita'
p6095
S'la'
p6096
S'bonita'
p6097
tp6098
a(S'woah'
p6099
S'woah'
p6100
S'woah'
p6101
tp6102
a(S'she'
p6103
S'wanted'
p6104
S'trukfit'
p6105
tp6106
a(S'victoria'
p6107
S'justice'
p6108
S'is'
p6109
tp6110
a(S'student'
p6111
S'radio'
p6112
S'show'
p6113
tp6114
a(S'the'
p6115
S'dj'
p6116
S'booth'
p6117
tp6118
a(S'personally'
p6119
S'victimized'
p6120
S'by'
p6121
tp6122
a(S'our'
p6123
S'first'
p6124
S'lease'
p6125
tp6126
a(S'ate'
p6127
S'my'
p6128
S'twin'
p6129
tp6130
a(g5190
g4332
g4333
tp6131
a(S'a'
S'randolph'
p6132
S'nj'
p6133
tp6134
a(S'stones'
p6135
S'on'
p6136
S'stones'
p6137
tp6138
a(S'confesses'
p6139
S'to'
p6140
S'using'
p6141
tp6142
a(S'nigga'
p6143
S'nigga'
p6144
S'nigga'
p6145
tp6146
a(S'a'
S'rocket'
p6147
S'ship'
p6148
tp6149
a(S'vs'
p6150
S'penn'
p6151
S'state'
p6152
tp6153
a(S'tornado'
p6154
S'warnings'
p6155
S'in'
p6156
tp6157
a(S'mommy'
p6158
S'kissing'
p6159
S'santa'
p6160
tp6161
a(S'evans'
p6162
S'scholars'
p6163
S'house'
p6164
tp6165
a(S'their'
p6166
S'own'
p6167
S'buses'
p6168
tp6169
a(S'considered'
p6170
S'my'
p6171
S'opponent'
p6172
tp6173
a(S'your'
p6174
S'lovely'
p6175
S'faces'
p6176
tp6177
a(S'tornado'
p6178
S'warnings'
p6179
S'at'
p6180
tp6181
a(S'miracle'
p6182
S'network'
p6183
S'hospitals'
p6184
tp6185
a(g5372
S'of'
p6186
S'chuck'
p6187
tp6188
a(S'conversation'
p6189
S'right'
p6190
S'meow'
p6191
tp6192
a(S'randy'
p6193
S'lay'
p6194
S'there'
p6195
tp6196
a(S'shooting'
p6197
S'in'
p6198
S'connecticut'
p6199
tp6200
a(S'sweet'
p6201
S'baby'
p6202
S'jesus'
p6203
tp6204
a(S'nothin'
p6205
S'but'
p6206
S'fake'
p6207
tp6208
a(S'total'
p6209
S'laura'
p6210
S'move'
p6211
tp6212
a(S'the'
p6213
S'word'
p6214
S'penetrate'
p6215
tp6216
a(S'jordy'
p6217
S'doesnt'
p6218
S'miss'
p6219
tp6220
a(S'favorite'
p6221
S'player'
p6222
S'cody'
p6223
tp6224
a(S'yell'
p6225
g5797
g5798
tp6226
a(S'handspring'
p6227
S'step'
p6228
S'out'
p6229
tp6230
a(S'pregamed'
p6231
S'our'
p6232
S'pregame'
p6233
tp6234
a(S'of'
p6235
S'whoop'
p6236
S'ass'
p6237
tp6238
a(S'expect'
p6239
S'nothing'
p6240
S'less'
p6241
tp6242
a(S'my'
p6243
S'windsheild'
p6244
S'wipers'
p6245
tp6246
a(S'some'
p6247
S'bad'
p6248
S'habits'
p6249
tp6250
a(S'throw'
p6251
S'some'
p6252
S'ds'
p6253
tp6254
a(S'the'
p6255
g4212
g4213
tp6256
a(S'that'
p6257
S'harry'
p6258
S'potter'
p6259
tp6260
a(S'happier'
p6261
S'than'
p6262
S'seeing'
p6263
tp6264
a(S''
S'cam'
p6265
S'meekins'
p6266
tp6267
a(S'ice'
p6268
S'cream'
p6269
S'while'
p6270
tp6271
a(S'bet'
p6272
S'he'
p6273
S'likes'
p6274
tp6275
a(S'the'
p6276
S'weaker'
p6277
S'sex'
p6278
tp6279
a(g4458
g4459
g4607
tp6280
a(S'cody'
p6281
S'zeller'
p6282
S'makes'
p6283
tp6284
a(S'oakwoods'
p6285
S'most'
p6286
S'spirited'
p6287
tp6288
a(S'performance'
p6289
S'enhancing'
p6290
S'drugs'
p6291
tp6292
a(S'bavarian'
p6293
S'cream'
p6294
S'filling'
p6295
tp6296
a(S'awhile'
p6297
S'no'
p6298
S'wonder'
p6299
tp6300
a(S'and'
p6301
S'ugg'
p6302
S'boots'
p6303
tp6304
a(S'trick'
p6305
S'or'
p6306
S'treating'
p6307
tp6308
a(S'chi'
p6309
S'o'
S'chi'
p6310
tp6311
a(S'punt'
p6312
S'blocked'
p6313
S'and'
p6314
tp6315
a(S'and'
p6316
S'calvin'
p6317
S'harris'
p6318
tp6319
a(S'th'
p6320
S'tweet'
p6321
S'goes'
p6322
tp6323
a(S''
S'aunt'
p6324
S'beck'
p6325
tp6326
a(S'aj'
p6327
S'mccarrons'
p6328
S'girlfriend'
p6329
tp6330
a(g4858
g4859
S'grigio'
p6331
tp6332
a(g4294
g5793
g5794
tp6333
a(S'out'
p6334
S'yo'
p6335
S'feelings'
p6336
tp6337
a(S'wouldnt'
p6338
S'mind'
p6339
S'seeing'
p6340
tp6341
a(S'a'
S'blind'
p6342
S'squirrel'
p6343
tp6344
a(S'tempted'
p6345
S'to'
p6346
S'cut'
p6347
tp6348
a(S'watching'
p6349
S'magic'
p6350
S'mike'
p6351
tp6352
a(S'drink'
p6353
S'your'
p6354
S'ovaltine'
p6355
tp6356
a(S'huey'
p6357
S'mack'
p6358
S'x'
tp6359
a(S'retweet'
p6360
S'httptcocpgsnx'
p6361
S'it'
p6362
tp6363
a(g4061
g4062
S'wed'
p6364
tp6365
a(S'entire'
p6366
S'twitter'
p6367
S'feed'
p6368
tp6369
a(S'fuck'
p6370
S'marvin'
p6371
S'lewis'
p6372
tp6373
a(S'carving'
p6374
S'a'
S'pumpkin'
p6375
tp6376
a(g6358
S'x'
S'jon'
p6377
tp6378
a(S'opposite'
p6379
S'side'
p6380
S'of'
p6381
tp6382
a(S'mat'
p6383
S'kearney'
p6384
S'live'
p6385
tp6386
a(S'hate'
p6387
S'serena'
p6388
S'vanderwoodsen'
p6389
tp6390
a(S'battier'
p6391
S'for'
p6392
S'three'
p6393
tp6394
a(S'carrie'
p6395
S'underwood'
p6396
S'is'
p6397
tp6398
a(S'winner'
p6399
S'winner'
p6400
S'chicken'
p6401
tp6402
a(S''
S'mike'
p6403
S'pence'
p6404
tp6405
a(S'roller'
p6406
S'coaster'
p6407
S'tycoon'
p6408
tp6409
a(S'passing'
p6410
S'yards'
p6411
S'this'
p6412
tp6413
a(g5219
g5220
S'me'
p6414
tp6415
a(S'in'
p6416
S'low'
p6417
S'places'
p6418
tp6419
a(S'the'
p6420
S'group'
p6421
S'identity'
p6422
tp6423
a(g4370
g4371
g4783
tp6424
a(S'far'
p6425
S'taking'
p6426
S'surveys'
p6427
tp6428
a(S'nothin'
p6429
S'but'
p6430
S'loose'
p6431
tp6432
a(S'so'
p6433
S'incredibly'
p6434
S'thankful'
p6435
tp6436
a(S''
S'huey'
p6437
S'mack'
p6438
tp6439
a(S'adwould'
p6440
S'you'
p6441
S'mind'
p6442
tp6443
a(g6343
S'finds'
p6444
S'a'
tp6445
a(S'for'
p6446
S'breaking'
p6447
S'dawn'
p6448
tp6449
a(g6167
g6168
S'wtf'
p6450
tp6451
a(S'from'
p6452
S'brian'
p6453
S'singer'
p6454
tp6455
a(S'bottle'
p6456
S'of'
p6457
S'wine'
p6458
tp6459
a(g5666
g5667
S'ocean'
p6460
tp6461
a(S'psych'
p6462
S'notes'
p6463
S'under'
p6464
tp6465
a(S'storm'
p6466
S'runs'
p6467
S'out'
p6468
tp6469
a(S'you'
p6470
g5334
g5046
tp6471
a(S'week'
p6472
S'long'
p6473
S'vyvanse'
p6474
tp6475
a(S'worry'
p6476
g4970
g4971
tp6477
a(S'im'
p6478
S'lactose'
p6479
S'intolerant'
p6480
tp6481
a(S'i'
S'highly'
p6482
S'recommend'
p6483
tp6484
a(g6278
S'try'
p6485
g5026
tp6486
a(g5816
g5817
S'update'
p6487
tp6488
a(S'youread'
p6489
S'love'
p6490
S'horoscope'
p6491
tp6492
a(S'marvin'
p6493
S'lewis'
p6494
S'should'
p6495
tp6496
a(S'close'
p6497
S'for'
p6498
S'comfort'
p6499
tp6500
a(S'no'
p6501
S'te'
p6502
S'gusta'
p6503
tp6504
a(S'napoleon'
p6505
g5278
g5279
tp6506
a(S'balcony'
p6507
S'seats'
p6508
S'are'
p6509
tp6510
a(g5007
g5008
S'movie'
p6511
tp6512
a(S'each'
p6513
S'other'
p6514
S'soon'
p6515
tp6516
a(S'the'
p6517
S'pi'
p6518
S'beta'
p6519
tp6520
a(S'hope'
p6521
S'everyone'
p6522
S'enjoys'
p6523
tp6524
a(g4197
g4198
S'cream'
p6525
tp6526
a(S'same'
p6527
S'exact'
p6528
S'thing'
p6529
tp6530
a(S'ding'
p6531
S'dong'
p6532
S'ditched'
p6533
tp6534
a(S''
S'riff'
p6535
S'raff'
p6536
tp6537
a(S'rt'
p6538
g6030
g6031
tp6539
a(S'mondays'
p6540
S'and'
p6541
S'wednesdays'
p6542
tp6543
a(g6523
S'this'
p6544
S'beautiful'
p6545
tp6546
a(S'jurkin'
p6547
g5712
g5713
tp6548
a(S'carrie'
p6549
S'underwood'
p6550
S''
tp6551
a(g4733
S''
S'cabin'
p6552
tp6553
a(S'raise'
p6554
S'money'
p6555
S'httptcocpgsnx'
p6556
tp6557
a(S''
g4266
g4267
tp6558
a(S'when'
p6559
S'everythings'
p6560
S'meant'
p6561
tp6562
a(g5908
g5495
g5496
tp6563
a(S'to'
p6564
S'dairy'
p6565
S'master'
p6566
tp6567
a(g5159
g5160
g5733
tp6568
a(S'bread'
p6569
S'and'
p6570
S'butter'
p6571
tp6572
a(S'freddyfingaz'
p6573
S'invite'
p6574
S'me'
p6575
tp6576
a(S'of'
p6577
S'shipping'
p6578
S'wars'
p6579
tp6580
a(S'grinds'
p6581
S'my'
p6582
S'gears'
p6583
tp6584
a(S'that'
p6585
S'awkward'
p6586
S'moment'
p6587
tp6588
a(S'someone'
p6589
S'please'
p6590
S'explain'
p6591
tp6592
a(S'watch'
p6593
S'scary'
p6594
S'movies'
p6595
tp6596
a(S'hours'
p6597
S'till'
p6598
S'tip'
p6599
tp6600
a(S'the'
p6601
S'bounty'
p6602
S'hunter'
p6603
tp6604
a(S'not'
p6605
S'paying'
p6606
S'attention'
p6607
tp6608
a(S'wolverines'
p6609
S'probably'
p6610
S'gonna'
p6611
tp6612
a(g4678
g4679
S'comes'
p6613
tp6614
a(S'bengals'
p6615
S'fan'
p6616
S'right'
p6617
tp6618
a(S'moon'
p6619
S'would'
p6620
S'illuminate'
p6621
tp6622
a(S'cant'
p6623
S'stop'
p6624
S'smiling'
p6625
tp6626
a(S'check'
p6627
S'out'
p6628
S'sammy'
p6629
tp6630
a(S'walked'
p6631
S'into'
p6632
S'class'
p6633
tp6634
a(S'a'
S'roller'
p6635
S'coaster'
p6636
tp6637
a(S'horoscope'
p6638
S'httptcovohtjtdx'
p6639
S'taurus'
p6640
tp6641
a(S'peter'
p6642
S'jurkin'
p6643
S'and'
p6644
tp6645
a(S'nah'
p6646
S'naaaaah'
p6647
S'nah'
p6648
tp6649
a(S'and'
p6650
S'peanut'
p6651
S'butter'
p6652
tp6653
a(S'and'
p6654
S'pat'
p6655
S'beach'
p6656
tp6657
a(S'freezing'
p6658
S'my'
p6659
S'tits'
p6660
tp6661
a(S'three'
p6662
S'hour'
p6663
S'nap'
p6664
tp6665
a(S'a'
S'panic'
p6666
S'attack'
p6667
tp6668
a(S'work'
p6669
S'his'
p6670
S'magic'
p6671
tp6672
a(g6473
g6474
S'binge'
p6673
tp6674
a(g4268
g6182
g6183
tp6675
a(S'get'
p6676
g4587
g4588
tp6677
a(S'dujuan'
p6678
S'harris'
p6679
S'though'
p6680
tp6681
a(S'my'
p6682
S'computer'
p6683
S'charger'
p6684
tp6685
a(S'cutler'
p6686
S'to'
p6687
S'marshall'
p6688
tp6689
a(S'hang'
p6690
S'out'
p6691
S'sometime'
p6692
tp6693
a(S'wiz'
p6694
S'khalifa'
p6695
S''
tp6696
a(S'and'
p6697
S'flip'
p6698
S'flops'
p6699
tp6700
a(S'my'
p6701
S'physics'
p6702
S'prof'
p6703
tp6704
a(S'car'
p6705
S'rides'
p6706
S'with'
p6707
tp6708
a(g4549
g4550
g5870
tp6709
a(S'book'
p6710
S'review'
p6711
S'over'
p6712
tp6713
a(S'shadily'
p6714
S'just'
p6715
S'loled'
p6716
tp6717
a(S'aka'
p6718
S'badass'
p6719
S'gangstaa'
p6720
tp6721
a(S'an'
p6722
g4184
g4185
tp6723
a(S'james'
p6724
S'cameron'
p6725
S'does'
p6726
tp6727
a(S'blake'
p6728
S'lively'
p6729
S'in'
p6730
tp6731
a(S'my'
p6732
S'ipad'
p6733
S'mini'
p6734
tp6735
a(S'an'
p6736
S'edible'
p6737
S'arrangement'
p6738
tp6739
a(S'hanging'
p6740
S'out'
p6741
S'w'
tp6742
a(S'eat'
p6743
S'sit'
p6744
S'eat'
p6745
tp6746
a(g6313
g6314
S'returned'
p6747
tp6748
a(S'spring'
p6749
S'break'
p6750
S'yet'
p6751
tp6752
a(S'thoughts'
p6753
S'and'
p6754
S'prayers'
p6755
tp6756
a(S't'
S't'
S't'
tp6757
a(S'snap'
p6758
S'chats'
p6759
S'from'
p6760
tp6761
a(S'miss'
p6762
S'being'
p6763
S'tan'
p6764
tp6765
a(S'into'
p6766
S'hoosier'
p6767
S'hysteria'
p6768
tp6769
a(S'glass'
p6770
S'of'
p6771
S'wine'
p6772
tp6773
a(S'soiled'
p6774
S'it'
p6775
S'soiled'
p6776
tp6777
a(g6460
S'and'
p6778
S'calvin'
p6779
tp6780
a(S'el'
p6781
S'oh'
p6782
S'el'
p6783
tp6784
a(S'encounter'
p6785
S'happens'
p6786
S'tonight'
p6787
tp6788
a(g4306
g4720
g4721
tp6789
a(S'a'
S'helmet'
p6790
S'defending'
p6791
tp6792
a(S'my'
p6793
S'entire'
p6794
S'wardrobe'
p6795
tp6796
a(S'your'
p6797
S'profile'
p6798
S'pic'
p6799
tp6800
a(S'past'
p6801
S'behind'
p6802
S'us'
p6803
tp6804
a(S'clap'
p6805
S'clap'
p6806
S'clap'
p6807
tp6808
a(S'in'
p6809
S'oak'
p6810
S'park'
p6811
tp6812
a(S'meth'
p6813
S'coast'
p6814
S'indiana'
p6815
tp6816
a(S'inches'
p6817
S'of'
p6818
S'snow'
p6819
tp6820
a(S'screwed'
p6821
S'either'
p6822
S'way'
p6823
tp6824
a(S'our'
p6825
S'future'
p6826
S'husbands'
p6827
tp6828
a(S'the'
p6829
S'garbage'
p6830
S'disposal'
p6831
tp6832
a(g5337
S''
S'trap'
p6833
tp6834
a(S'four'
p6835
S'daysi'
p6836
S'should'
p6837
tp6838
a(S'hasnt'
p6839
S'even'
p6840
S'started'
p6841
tp6842
a(S'mitt'
p6843
S'romney'
p6844
S'is'
p6845
tp6846
a(S'luke'
p6847
S'bryan'
p6848
S'concert'
p6849
tp6850
a(S'would'
p6851
g4556
g4557
tp6852
a(S'leedle'
p6853
S'leedle'
p6854
S'leedle'
p6855
tp6856
a(S'a'
g4708
g4709
tp6857
a(S'sirens'
p6858
S'went'
p6859
S'off'
p6860
tp6861
a(S'general'
p6862
S'admission'
p6863
S'for'
p6864
tp6865
a(S'expect'
p6866
S'a'
S'reply'
p6867
tp6868
a(g6133
S'resident'
p6869
S'going'
p6870
tp6871
a(S'oppa'
p6872
g5839
g5840
tp6873
a(S'always'
p6874
S'getting'
p6875
S'faded'
p6876
tp6877
a(S'got'
p6878
g6054
g6055
tp6879
a(g6228
g6229
g4501
tp6880
a(S'aunt'
p6881
S'and'
p6882
S'uncle'
p6883
tp6884
a(S'inside'
p6885
S'assembly'
p6886
S'hall'
p6887
tp6888
a(S'hostility'
p6889
S'on'
p6890
S'twitter'
p6891
tp6892
a(S'dog'
p6893
g6601
g6602
tp6894
a(S'the'
p6895
S'cigarettes'
p6896
g5573
tp6897
a(S'am'
p6898
S'fire'
p6899
S'alarm'
p6900
tp6901
a(S'tatiimarie'
p6902
S'my'
p6903
g4894
tp6904
a(g4633
g4435
g4436
tp6905
a(S'regular'
p6906
S'season'
p6907
S'game'
p6908
tp6909
a(S'being'
p6910
g5785
g5786
tp6911
a(S'words'
p6912
S'with'
p6913
S'zach'
p6914
tp6915
a(S'congrats'
p6916
S'iu'
p6917
S'mens'
p6918
tp6919
a(S'between'
p6920
S'getting'
p6921
S'sucked'
p6922
tp6923
a(S'christina'
p6924
S'aguilera'
p6925
S'and'
p6926
tp6927
a(S'bryant'
p6928
S'lebron'
p6929
S'james'
p6930
tp6931
a(S'keep'
p6932
S'us'
p6933
S'comfortable'
p6934
tp6935
a(S'notices'
p6936
S'and'
p6937
S'joins'
p6938
tp6939
a(S'melo'
p6940
S'isnt'
p6941
S'playing'
p6942
tp6943
a(S'doin'
p6944
S'big'
p6945
S'things'
p6946
tp6947
a(g4817
g4818
S'into'
p6948
tp6949
a(S'right'
p6950
S'isle'
p6951
S'httptcomjisp'
p6952
tp6953
a(S'college'
p6954
S'hoops'
p6955
S'k'
tp6956
a(S'make'
p6957
S'an'
p6958
S'appearance'
p6959
tp6960
a(S'brushing'
p6961
S'my'
p6962
S'teeth'
p6963
tp6964
a(S'dame'
p6965
S'football'
p6966
S'players'
p6967
tp6968
a(g5574
g5575
S'ocean'
p6969
tp6970
a(S'what'
p6971
g6724
g6725
tp6972
a(S'vs'
p6973
S'uk'
p6974
S'tomorrow'
p6975
tp6976
a(S'the'
p6977
S'grinch'
p6978
S'stole'
p6979
tp6980
a(S'baking'
p6981
S'cookies'
p6982
S'with'
p6983
tp6984
a(S'human'
p6985
S'centipede'
p6986
S''
tp6987
a(S'these'
p6988
S'beautiful'
p6989
S'angels'
p6990
tp6991
a(S'spell'
p6992
S'things'
p6993
S'wrong'
p6994
tp6995
a(g5713
g5714
S'httptcoobwoo'
p6996
tp6997
a(S'horoscope'
p6998
S'httptcovohtjtdx'
p6999
S'many'
p7000
tp7001
a(g4539
S'will'
p7002
S'shine'
p7003
tp7004
a(S'hookah'
p7005
S'session'
p7006
S'after'
p7007
tp7008
a(S'gangnam'
p7009
S'style'
p7010
S'guy'
p7011
tp7012
a(g4917
g4918
S'temple'
p7013
tp7014
a(S'making'
p7015
S'me'
p7016
S'blush'
p7017
tp7018
a(S'made'
p7019
S'basket'
p7020
S'resulted'
p7021
tp7022
a(S'wizard'
p7023
S'of'
p7024
S'oz'
p7025
tp7026
a(S'lance'
p7027
S'armstrong'
p7028
g6139
tp7029
a(S'happens'
p7030
S'tonight'
p7031
S'pm'
p7032
tp7033
a(S'grey'
p7034
S'street'
p7035
S'playing'
p7036
tp7037
a(S'a'
S'brighter'
p7038
S'note'
p7039
tp7040
a(S'hate'
p7041
S'being'
p7042
S'sober'
p7043
tp7044
a(S'most'
p7045
S'stressful'
p7046
S'things'
p7047
tp7048
a(S'of'
p7049
S'peanut'
p7050
S'butter'
p7051
tp7052
a(S'seven'
p7053
S'year'
p7054
S'old'
p7055
tp7056
a(S'ice'
p7057
S'skating'
p7058
S'dinner'
p7059
tp7060
a(S'o'
g6310
S'omega'
p7061
tp7062
a(g4713
g4714
S'probably'
p7063
tp7064
a(S'some'
p7065
S'chuck'
p7066
S'taylor'
p7067
tp7068
a(S'cold'
p7069
S'as'
p7070
S'balls'
p7071
tp7072
a(g6277
g6278
g6485
tp7073
a(S'hanner'
p7074
g4223
g4224
tp7075
a(S'heard'
p7076
g4079
g4080
tp7077
a(S'use'
p7078
S'a'
S'pep'
p7079
tp7080
a(S'the'
p7081
g4021
g4022
tp7082
a(S'wanna'
p7083
S'fall'
p7084
S'unless'
p7085
tp7086
a(S'notre'
p7087
S'dame'
p7088
S'fan'
p7089
tp7090
a(S'her'
p7091
S'big'
p7092
S'booty'
p7093
tp7094
a(S'shouldnt'
p7095
S'be'
p7096
S'allowed'
p7097
tp7098
a(S'dickie'
p7099
S'v'
S'is'
p7100
tp7101
a(S'the'
p7102
S'replacement'
p7103
S'refs'
p7104
tp7105
a(g5678
g5679
S''
tp7106
a(S'kerriguppy'
p7107
S'kobe'
p7108
g6928
tp7109
a(S'how'
p7110
S'many'
p7111
S'fucks'
p7112
tp7113
a(g6027
g6028
S'wants'
p7114
tp7115
a(S'stronger'
p7116
S'than'
p7117
S'death'
p7118
tp7119
a(g7046
g7047
S'ever'
p7120
tp7121
a(S'yay'
p7122
S'yay'
p7123
S'yay'
p7124
tp7125
a(S'old'
p7126
S'text'
p7127
S'messages'
p7128
tp7129
a(S'doesnt'
p7130
S'necessarily'
p7131
S'mean'
p7132
tp7133
a(S'christmas'
p7134
S'eve'
p7135
S'mass'
p7136
tp7137
a(g4267
g4268
g6182
tp7138
a(S'iu'
p7139
S'mens'
p7140
S'basketball'
p7141
tp7142
a(g6141
g6289
g6290
tp7143
a(S'sore'
p7144
S'right'
p7145
S'hands'
p7146
tp7147
a(S'shot'
p7148
S'of'
p7149
S'whiskey'
p7150
tp7151
a(g6132
g6133
g6869
tp7152
a(S'thought'
p7153
S'youd'
p7154
S'enjoy'
p7155
tp7156
a(S'didnt'
p7157
S'even'
p7158
S'notice'
p7159
tp7160
a(S'some'
p7161
S'black'
p7162
S'ops'
p7163
tp7164
a(S'her'
p7165
S'calc'
p7166
S'exam'
p7167
tp7168
a(S'dranks'
p7169
S'on'
p7170
S'dranks'
p7171
tp7172
a(S'watched'
p7173
S'an'
p7174
S'episode'
p7175
tp7176
a(S'raise'
p7177
S'your'
p7178
S'hand'
p7179
tp7180
a(S'pissed'
p7181
S'off'
p7182
S'mood'
p7183
tp7184
a(S'tyson'
p7185
S'bahrke'
p7186
S'was'
p7187
tp7188
a(S'uberfacts'
p7189
S'the'
p7190
S'average'
p7191
tp7192
a(S'need'
p7193
S'abell'
p7194
g6547
tp7195
a(S'bucks'
p7196
S'to'
p7197
S'retweethttptcocpgsnx'
p7198
tp7199
a(S'a'
g5310
g5311
tp7200
a(S'joey'
p7201
S'bada'
p7202
S'amp'
p7203
tp7204
a(S'her'
p7205
S'belly'
p7206
S'button'
p7207
tp7208
a(g6896
g5573
g5574
tp7209
a(S'old'
p7210
S'facebook'
p7211
S'messages'
p7212
tp7213
a(S'jeannes'
p7214
S'been'
p7215
S'drinking'
p7216
tp7217
a(S'their'
p7218
S'own'
p7219
S'opinion'
p7220
tp7221
a(S'wheat'
p7222
S'thins'
p7223
S'are'
p7224
tp7225
a(S''
S'american'
p7226
S'horror'
p7227
tp7228
a(S'texas'
p7229
S'roadhouse'
p7230
S'is'
p7231
tp7232
a(S'new'
p7233
S'years'
p7234
S'kiss'
p7235
tp7236
a(S'the'
p7237
S'correct'
p7238
S'answers'
p7239
tp7240
a(S'silver'
p7241
S'tb'
p7242
S'flats'
p7243
tp7244
a(S'hour'
p7245
S'long'
p7246
S'conversation'
p7247
tp7248
a(S'b'
S'wells'
p7249
S'library'
p7250
tp7251
a(S'bg'
p7252
S'road'
p7253
S'win'
p7254
tp7255
a(S'grain'
p7256
S'of'
p7257
S'sand'
p7258
tp7259
a(S'in'
p7260
S'mackey'
p7261
S'arena'
p7262
tp7263
a(g5417
g5418
S''
tp7264
a(S'my'
p7265
S'future'
p7266
S'husband'
p7267
tp7268
a(S'hot'
p7269
S'tub'
p7270
S'party'
p7271
tp7272
a(S'brown'
p7273
S'county'
p7274
S'yl'
p7275
tp7276
a(S'draw'
p7277
S'nigh'
p7278
S'to'
p7279
tp7280
a(g6022
g6023
S'mole'
p7281
tp7282
a(S'jurkin'
p7283
S'and'
p7284
S'perea'
p7285
tp7286
a(S'bart'
p7287
S'bass'
p7288
S'is'
p7289
tp7290
a(S'of'
p7291
g5962
g5963
tp7292
a(S'happy'
p7293
S'new'
p7294
S'yearrrrrr'
p7295
tp7296
a(S'gresh'
p7297
S'have'
p7298
S'sushi'
p7299
tp7300
a(S'our'
p7301
S'lord'
p7302
S'jesus'
p7303
tp7304
a(S'hall'
p7305
S'of'
p7306
S'fame'
p7307
tp7308
a(g5766
g5767
S'them'
p7309
tp7310
a(S'x'
S'yo'
p7311
S'gotti'
p7312
tp7313
a(S'while'
p7314
S'escaping'
p7315
S'from'
p7316
tp7317
a(S'cardigan'
p7318
S'but'
p7319
S'thanks'
p7320
tp7321
a(S'black'
p7322
S'friday'
p7323
S'shopping'
p7324
tp7325
a(g4437
S'gleaming'
p7326
S'in'
p7327
tp7328
a(g6779
S'harris'
p7329
S'are'
p7330
tp7331
a(S'duke'
p7332
g6973
g6974
tp7333
a(S'haters'
p7334
S'gonna'
p7335
S'hate'
p7336
tp7337
a(S'lie'
p7338
S'lie'
p7339
S'lie'
p7340
tp7341
a(S'points'
p7342
g7314
g7315
tp7343
a(S'play'
p7344
S'football'
p7345
S'chant'
p7346
tp7347
a(S'rosy'
p7348
g4304
g4305
tp7349
a(S'the'
p7350
S'tough'
p7351
S'mudder'
p7352
tp7353
a(S'too'
p7354
S'baby'
p7355
S'cakes'
p7356
tp7357
a(S'role'
p7358
S'model'
p7359
S'so'
p7360
tp7361
a(S'bigger'
p7362
S'than'
p7363
S'yourself'
p7364
tp7365
a(S'middle'
p7366
S'fingers'
p7367
S'up'
p7368
tp7369
a(S'still'
p7370
g7193
g7194
tp7371
a(S'least'
p7372
S'youre'
p7373
S'callin'
p7374
tp7375
a(S'mccarrons'
p7376
S'girlfriend'
p7377
S'is'
p7378
tp7379
a(g6442
S'pointing'
p7380
S'me'
p7381
tp7382
a(S'thanksgiving'
p7383
S'break'
p7384
S'begin'
p7385
tp7386
a(S'early'
p7387
S'christmas'
p7388
S'present'
p7389
tp7390
a(S'play'
p7391
S'an'
p7392
S'instrument'
p7393
tp7394
a(S'iupains'
p7395
S'holla'
p7396
S'at'
p7397
tp7398
a(S'russian'
p7399
S'short'
p7400
S'stories'
p7401
tp7402
a(g6444
S'a'
S'nut'
p7403
tp7404
a(S'hart'
p7405
S'of'
p7406
S'dixie'
p7407
tp7408
a(S'cody'
p7409
S'zeller'
p7410
S'has'
p7411
tp7412
a(S'love'
p7413
g6178
g6179
tp7414
a(S'little'
p7415
S'bit'
p7416
S'ago'
p7417
tp7418
a(S'already'
p7419
S'looking'
p7420
S'forward'
p7421
tp7422
a(g6031
g6032
S'decatur'
p7423
tp7424
a(S'ratchet'
p7425
S'flip'
p7426
S'phone'
p7427
tp7428
a(S'we'
p7429
S'were'
p7430
S'infinite'
p7431
tp7432
a(S'an'
p7433
S'elementary'
p7434
S'school'
p7435
tp7436
a(S'the'
p7437
S'pro'
p7438
S'letarians'
p7439
tp7440
a(S'cool'
p7441
g5540
g5541
tp7442
a(g7238
g7239
S'to'
p7443
tp7444
a(S'the'
p7445
g6505
g5278
tp7446
a(S'lord'
p7447
S'thy'
p7448
S'god'
p7449
tp7450
a(g5187
g5188
S'do'
p7451
tp7452
a(S'of'
p7453
S'american'
p7454
S'horror'
p7455
tp7456
a(S'told'
p7457
S'ah'
p7458
S'ah'
p7459
tp7460
a(g7108
g6928
g6929
tp7461
a(g4855
g4747
g4748
tp7462
a(S'shitty'
p7463
S'internet'
p7464
S'connection'
p7465
tp7466
a(g6055
g5302
g5303
tp7467
a(S'my'
p7468
S'tumblr'
p7469
S'httptcoisyemnp'
p7470
tp7471
a(g6248
g6249
S'baby'
p7472
tp7473
a(S'posted'
p7474
S'a'
S'photo'
p7475
tp7476
a(S'my'
p7477
S'caffeine'
p7478
S'addiction'
p7479
tp7480
a(S'ben'
p7481
S'and'
p7482
S'jerrys'
p7483
tp7484
a(S'my'
p7485
S'wisdom'
p7486
S'teeth'
p7487
tp7488
a(S'are'
p7489
S'gods'
p7490
S'gift'
p7491
tp7492
a(S'pussy'
p7493
S'money'
p7494
S'weed'
p7495
tp7496
a(S'an'
p7497
S'address'
p7498
S'where'
p7499
tp7500
a(S'the'
p7501
S'lion'
p7502
S'king'
p7503
tp7504
a(S'public'
p7505
S'service'
p7506
S'announcement'
p7507
tp7508
a(S'chicken'
p7509
S'parmigiana'
p7510
S'and'
p7511
tp7512
a(S'born'
p7513
S'and'
p7514
S'raised'
p7515
tp7516
a(S'married'
p7517
S'to'
p7518
S'jonas'
p7519
tp7520
a(g4404
g4405
g5758
tp7521
a(S'x'
g6377
S'kilmer'
p7522
tp7523
a(S'math'
p7524
S'city'
p7525
S'bitch'
p7526
tp7527
a(S'tweet'
p7528
S'about'
p7529
S'wanting'
p7530
tp7531
a(S'secret'
p7532
S'santa'
p7533
S'dinner'
p7534
tp7535
a(S'brushing'
p7536
S'your'
p7537
S'teeth'
p7538
tp7539
a(S'starting'
p7540
S'off'
p7541
S'strong'
p7542
tp7543
a(S'and'
p7544
S'tomato'
p7545
S'soup'
p7546
tp7547
a(S'buzzed'
p7548
g4111
g4112
tp7549
a(g4545
g4546
g4917
tp7550
a(S'chant'
p7551
g7260
g7261
tp7552
a(g6183
g6184
S'httptcoatsosjf'
p7553
tp7554
a(g6051
g6052
g5554
tp7555
a(S'a'
S'teddy'
p7556
S'bear'
p7557
tp7558
a(S'central'
p7559
S'connecticut'
p7560
S'state'
p7561
tp7562
a(g7302
g7303
S'christ'
p7563
tp7564
a(S'to'
p7565
S'establish'
p7566
S'himself'
p7567
tp7568
a(g5356
g5357
S''
tp7569
a(S'letting'
p7570
S'me'
p7571
S'borrow'
p7572
tp7573
a(S'in'
p7574
S'san'
p7575
S'diego'
p7576
tp7577
a(g4436
g4437
g7326
tp7578
a(S'every'
p7579
g6466
g6467
tp7580
a(g7020
g7021
S'in'
p7581
tp7582
a(S'like'
p7583
S'fish'
p7584
S'sticks'
p7585
tp7586
a(S'two'
p7587
g5754
g5755
tp7588
a(g7299
S'andor'
p7589
S'appetizing'
p7590
tp7591
a(g5505
S'my'
p7592
S'bitch'
p7593
tp7594
a(S'a'
S'hookah'
p7595
S'session'
p7596
tp7597
a(S'hd'
p7598
S'television'
p7599
S'channels'
p7600
tp7601
a(S'his'
p7602
S'ear'
p7603
S'off'
p7604
tp7605
a(S'home'
p7606
S'field'
p7607
S'advantage'
p7608
tp7609
a(S'forgot'
p7610
S'my'
p7611
S'bank'
p7612
tp7613
a(S'carmel'
p7614
S'football'
p7615
S'game'
p7616
tp7617
a(S'missing'
p7618
S'our'
p7619
S'exit'
p7620
tp7621
a(S'pass'
p7622
S'the'
p7623
S'refreshments'
p7624
tp7625
a(g5452
g4902
g4903
tp7626
a(S'brings'
p7627
S'back'
p7628
S'memories'
p7629
tp7630
a(S'vote'
p7631
S'dont'
p7632
S'complain'
p7633
tp7634
a(g6038
g4816
g4817
tp7635
a(g5260
g5261
S'of'
p7636
tp7637
a(S'cream'
p7638
S'and'
p7639
S'crimson'
p7640
tp7641
a(S'adlib'
p7642
S'adlib'
p7643
S'adlib'
p7644
tp7645
a(g6222
g6223
S'zeller'
p7646
tp7647
a(S'ive'
p7648
S'been'
p7649
S'meaning'
p7650
tp7651
a(S''
S'honorable'
p7652
S'mentions'
p7653
tp7654
a(S'and'
p7655
S'th'
p7656
S'seeds'
p7657
tp7658
a(g7298
g7299
g7589
tp7659
a(S'of'
p7660
S'cough'
p7661
S'drops'
p7662
tp7663
a(S'a'
S'kidz'
p7664
S'bop'
p7665
tp7666
a(S'official'
p7667
S'music'
p7668
S'video'
p7669
tp7670
a(S'black'
p7671
S'long'
p7672
S'sleeve'
p7673
tp7674
a(g7028
g6139
g6140
tp7675
a(S'blue'
p7676
S'mountain'
p7677
S'state'
p7678
tp7679
a(S'bye'
p7680
S'buddy'
p7681
S'hope'
p7682
tp7683
a(g6342
g6343
g6444
tp7684
a(S'in'
p7685
S'south'
p7686
S'korea'
p7687
tp7688
a(S'the'
p7689
S'lady'
p7690
S'marmalade'
p7691
tp7692
a(S'in'
p7693
S'central'
p7694
S'park'
p7695
tp7696
a(S'ding'
p7697
g4692
g4693
tp7698
a(S'was'
p7699
S'hiding'
p7700
S'under'
p7701
tp7702
a(S'super'
p7703
S'super'
p7704
S'super'
p7705
tp7706
a(S'cheese'
p7707
g7544
g7545
tp7708
a(g4080
g4081
g5244
tp7709
a(S'studies'
p7710
S'have'
p7711
S'shown'
p7712
tp7713
a(S'obama'
p7714
S'is'
p7715
S'elected'
p7716
tp7717
a(S'slowest'
p7718
S'day'
p7719
S'ever'
p7720
tp7721
a(S'ab'
p7722
S'ripper'
p7723
S'x'
tp7724
a(S'pretty'
p7725
S'much'
p7726
S'sums'
p7727
tp7728
a(S'hold'
p7729
S'my'
p7730
S'dipo'
p7731
tp7732
a(S'la'
p7733
g6095
g6096
tp7734
a(S'shouldve'
p7735
S'said'
p7736
S'hi'
p7737
tp7738
a(g6430
g6431
S'ends'
p7739
tp7740
a(S'level'
p7741
S'of'
p7742
S'stupidity'
p7743
tp7744
a(S'club'
p7745
S'i'
S'joined'
p7746
tp7747
a(S'drives'
p7748
S'me'
p7749
S'insane'
p7750
tp7751
a(S'social'
p7752
g5483
g5484
tp7753
a(g6023
g7281
S'rat'
p7754
tp7755
a(S''
S'youngblood'
p7756
S'hawke'
p7757
tp7758
a(S'harry'
p7759
S'potter'
p7760
S''
tp7761
a(S'views'
p7762
S'on'
p7763
S'youtube'
p7764
tp7765
a(S'a'
S'grilled'
p7766
S'cheese'
p7767
tp7768
a(S'the'
p7769
S'grinch'
p7770
S'musical'
p7771
tp7772
a(S'words'
p7773
S'cant'
p7774
S'describe'
p7775
tp7776
a(S'political'
p7777
S'science'
p7778
S'class'
p7779
tp7780
a(g7194
g6547
g5712
tp7781
a(S'a'
S'chuck'
p7782
S'bass'
p7783
tp7784
a(S'north'
p7785
S'carolina'
p7786
S'game'
p7787
tp7788
a(S'happily'
p7789
S'ever'
p7790
S'after'
p7791
tp7792
a(S'read'
p7793
S'love'
p7794
S'horoscope'
p7795
tp7796
a(S'own'
p7797
S'two'
p7798
S'feet'
p7799
tp7800
a(S'in'
p7801
S'liv'
p7802
S'rec'
p7803
tp7804
a(S'rileys'
p7805
S'childrens'
p7806
S'hospital'
p7807
tp7808
a(S'a'
g5030
g5031
tp7809
a(S'httptcovohtjtdx'
p7810
S'taurus'
p7811
S'this'
p7812
tp7813
a(S'get'
p7814
S'left'
p7815
S'ngga'
p7816
tp7817
a(S'thanks'
p7818
S'bruh'
p7819
S'bruh'
p7820
tp7821
a(S'of'
p7822
S'south'
p7823
S'bend'
p7824
tp7825
a(S'dr'
p7826
S'martin'
p7827
S'luther'
p7828
tp7829
a(S'paint'
p7830
S'your'
p7831
S'nails'
p7832
tp7833
a(S'dey'
p7834
S'go'
p7835
S'bengals'
p7836
tp7837
a(S'my'
p7838
S'human'
p7839
S'sexuality'
p7840
tp7841
a(S'indiana'
p7842
S'mens'
p7843
S'soccer'
p7844
tp7845
a(S'turns'
p7846
S'from'
p7847
S'color'
p7848
tp7849
a(S'ups'
p7850
S'and'
p7851
S'downs'
p7852
tp7853
a(S'halo'
p7854
S'on'
p7855
S'halo'
p7856
tp7857
a(S'gotta'
p7858
S'give'
p7859
S'credit'
p7860
tp7861
a(S'yards'
p7862
S''
S'tds'
p7863
tp7864
a(g7624
S'a'
g7441
tp7865
a(S'circle'
p7866
S'of'
p7867
S'lights'
p7868
tp7869
a(S''
g4250
S'kbelbuto'
p7870
tp7871
a(g7794
g7795
S'httptcovohtjtdx'
p7872
tp7873
a(g7589
g7590
S'food'
p7874
tp7875
a(S'a'
g5471
g5472
tp7876
a(S'fire'
p7877
g4681
g4682
tp7878
a(S'shine'
p7879
S'bright'
p7880
S'like'
p7881
tp7882
a(S'cabin'
p7883
S'fever'
p7884
S''
tp7885
a(S'iu'
p7886
S'mens'
p7887
S'soccer'
p7888
tp7889
a(S'wisdom'
p7890
S'teeth'
p7891
S'out'
p7892
tp7893
aa.